# SymbolsHelper-Confirmed: 4:5.74.0 amd64
libKF5WaylandServer.so.5 libkf5waylandserver5 #MINVER#
* Build-Depends-Package: libkf5wayland-dev
 _ZN8KWayland6Server12BufferHandle5setFdEi@Base 4:5.45.0
 _ZN8KWayland6Server12BufferHandle7setSizeEjj@Base 4:5.45.0
 _ZN8KWayland6Server12BufferHandle9setFormatEj@Base 4:5.45.0
 _ZN8KWayland6Server12BufferHandle9setStrideEj@Base 4:5.45.0
 _ZN8KWayland6Server12BufferHandleC1Ev@Base 4:5.45.0
 _ZN8KWayland6Server12BufferHandleC2Ev@Base 4:5.45.0
 _ZN8KWayland6Server12BufferHandleD0Ev@Base 4:5.45.0
 _ZN8KWayland6Server12BufferHandleD1Ev@Base 4:5.45.0
 _ZN8KWayland6Server12BufferHandleD2Ev@Base 4:5.45.0
 _ZN8KWayland6Server12TabletCursor11qt_metacallEN11QMetaObject4CallEiPPv@Base 4:5.69.0
 _ZN8KWayland6Server12TabletCursor11qt_metacastEPKc@Base 4:5.69.0
 _ZN8KWayland6Server12TabletCursor16staticMetaObjectE@Base 4:5.69.0
 _ZN8KWayland6Server12TabletCursor7changedEv@Base 4:5.69.0
 _ZN8KWayland6Server12TabletCursorC1Ev@Base 4:5.69.0
 _ZN8KWayland6Server12TabletCursorC2Ev@Base 4:5.69.0
 _ZN8KWayland6Server12TabletCursorD0Ev@Base 4:5.69.0
 _ZN8KWayland6Server12TabletCursorD1Ev@Base 4:5.69.0
 _ZN8KWayland6Server12TabletCursorD2Ev@Base 4:5.69.0
 _ZN8KWayland6Server13BlurInterface11qt_metacallEN11QMetaObject4CallEiPPv@Base 4:5.5.0
 _ZN8KWayland6Server13BlurInterface11qt_metacastEPKc@Base 4:5.5.0
 _ZN8KWayland6Server13BlurInterface16staticMetaObjectE@Base 4:5.5.0
 _ZN8KWayland6Server13BlurInterface6regionEv@Base 4:5.5.0
 _ZN8KWayland6Server13BlurInterface7Private11s_interfaceE@Base 4:5.5.0
 _ZN8KWayland6Server13BlurInterface7Private14commitCallbackEP9wl_clientP11wl_resource@Base 4:5.5.0
 _ZN8KWayland6Server13BlurInterface7Private17setRegionCallbackEP9wl_clientP11wl_resourceS6_@Base 4:5.5.0
 _ZN8KWayland6Server13BlurInterface7Private6commitEv@Base 4:5.5.0
 _ZN8KWayland6Server13BlurInterface7PrivateC1EPS1_PNS0_20BlurManagerInterfaceEP11wl_resource@Base 4:5.5.0
 _ZN8KWayland6Server13BlurInterface7PrivateC2EPS1_PNS0_20BlurManagerInterfaceEP11wl_resource@Base 4:5.5.0
 _ZN8KWayland6Server13BlurInterface7PrivateD0Ev@Base 4:5.5.0
 _ZN8KWayland6Server13BlurInterface7PrivateD1Ev@Base 4:5.5.0
 _ZN8KWayland6Server13BlurInterface7PrivateD2Ev@Base 4:5.5.0
 _ZN8KWayland6Server13BlurInterfaceC1EPNS0_20BlurManagerInterfaceEP11wl_resource@Base 4:5.5.0
 _ZN8KWayland6Server13BlurInterfaceC2EPNS0_20BlurManagerInterfaceEP11wl_resource@Base 4:5.5.0
 _ZN8KWayland6Server13BlurInterfaceD0Ev@Base 4:5.5.0
 _ZN8KWayland6Server13BlurInterfaceD1Ev@Base 4:5.5.0
 _ZN8KWayland6Server13BlurInterfaceD2Ev@Base 4:5.5.0
 _ZN8KWayland6Server13IdleInterface11qt_metacallEN11QMetaObject4CallEiPPv@Base 4:5.4.0
 _ZN8KWayland6Server13IdleInterface11qt_metacastEPKc@Base 4:5.4.0
 _ZN8KWayland6Server13IdleInterface16inhibitedChangedEv@Base 4:5.41.0
 _ZN8KWayland6Server13IdleInterface16staticMetaObjectE@Base 4:5.4.0
 _ZN8KWayland6Server13IdleInterface20simulateUserActivityEv@Base 4:5.42.0
 _ZN8KWayland6Server13IdleInterface7Private11s_interfaceE@Base 4:5.4.0
 _ZN8KWayland6Server13IdleInterface7Private22getIdleTimeoutCallbackEP9wl_clientP11wl_resourcejS6_j@Base 4:5.4.0
 _ZN8KWayland6Server13IdleInterface7Private4bindEP9wl_clientjj@Base 4:5.4.0
 _ZN8KWayland6Server13IdleInterface7Private6unbindEP11wl_resource@Base 4:5.4.0
 _ZN8KWayland6Server13IdleInterface7Private9s_versionE@Base 4:5.5.0
 _ZN8KWayland6Server13IdleInterface7PrivateC1EPS1_PNS0_7DisplayE@Base 4:5.4.0
 _ZN8KWayland6Server13IdleInterface7PrivateC2EPS1_PNS0_7DisplayE@Base 4:5.4.0
 _ZN8KWayland6Server13IdleInterface7inhibitEv@Base 4:5.41.0
 _ZN8KWayland6Server13IdleInterface9uninhibitEv@Base 4:5.41.0
 _ZN8KWayland6Server13IdleInterfaceC1EPNS0_7DisplayEP7QObject@Base 4:5.4.0
 _ZN8KWayland6Server13IdleInterfaceC2EPNS0_7DisplayEP7QObject@Base 4:5.4.0
 _ZN8KWayland6Server13IdleInterfaceD0Ev@Base 4:5.4.0
 _ZN8KWayland6Server13IdleInterfaceD1Ev@Base 4:5.4.0
 _ZN8KWayland6Server13IdleInterfaceD2Ev@Base 4:5.4.0
 _ZN8KWayland6Server13SeatInterface10keyPressedEj@Base 4:5.1.1+git20141128.0009
 _ZN8KWayland6Server13SeatInterface10touchFrameEv@Base 4:5.2.2+git20150326.0109+15.04
 _ZN8KWayland6Server13SeatInterface10touchMovedEijRK7QPointF@Base 4:5.54.0
 _ZN8KWayland6Server13SeatInterface11dragStartedEv@Base 4:5.6.2
 _ZN8KWayland6Server13SeatInterface11keyReleasedEj@Base 4:5.1.1+git20141128.0009
 _ZN8KWayland6Server13SeatInterface11nameChangedERK7QString@Base 4:5.1.1+git20141128.0009
 _ZN8KWayland6Server13SeatInterface11pointerAxisEN2Qt11OrientationEj@Base 4:5.1.1+git20141128.0009
 _ZN8KWayland6Server13SeatInterface11qt_metacallEN11QMetaObject4CallEiPPv@Base 4:5.1.1+git20141128.0009
 _ZN8KWayland6Server13SeatInterface11qt_metacastEPKc@Base 4:5.1.1+git20141128.0009
 _ZN8KWayland6Server13SeatInterface11setHasTouchEb@Base 4:5.1.1+git20141128.0009
 _ZN8KWayland6Server13SeatInterface12setSelectionEPNS0_19DataDeviceInterfaceE@Base 4:5.24.0
 _ZN8KWayland6Server13SeatInterface12setTimestampEj@Base 4:5.1.1+git20141128.0009
 _ZN8KWayland6Server13SeatInterface12touchCreatedEPNS0_14TouchInterfaceE@Base 4:5.2.2+git20150326.0109+15.04
 _ZN8KWayland6Server13SeatInterface13pointerAxisV5EN2Qt11OrientationEdiNS0_17PointerAxisSourceE@Base 4:5.61.0
 _ZN8KWayland6Server13SeatInterface13setDragTargetEPNS0_16SurfaceInterfaceERK10QMatrix4x4@Base 4:5.6.2
 _ZN8KWayland6Server13SeatInterface13setDragTargetEPNS0_16SurfaceInterfaceERK7QPointFRK10QMatrix4x4@Base 4:5.6.2
 _ZN8KWayland6Server13SeatInterface13setHasPointerEb@Base 4:5.1.1+git20141128.0009
 _ZN8KWayland6Server13SeatInterface13setKeymapDataERK10QByteArray@Base 4:5.69.0
 _ZN8KWayland6Server13SeatInterface13setPointerPosERK7QPointF@Base 4:5.1.1+git20141128.0009
 _ZN8KWayland6Server13SeatInterface14pointerCreatedEPNS0_16PointerInterfaceE@Base 4:5.1.1+git20141128.0009
 _ZN8KWayland6Server13SeatInterface14setHasKeyboardEb@Base 4:5.1.1+git20141128.0009
 _ZN8KWayland6Server13SeatInterface15hasTouchChangedEb@Base 4:5.1.1+git20141128.0009
 _ZN8KWayland6Server13SeatInterface15keyboardCreatedEPNS0_17KeyboardInterfaceE@Base 4:5.1.1+git20141128.0009
 _ZN8KWayland6Server13SeatInterface16selectionChangedEPNS0_19DataDeviceInterfaceE@Base 4:5.61.0
 _ZN8KWayland6Server13SeatInterface16setKeyRepeatInfoEii@Base 4:5.5.0
 _ZN8KWayland6Server13SeatInterface16staticMetaObjectE@Base 4:5.1.1+git20141128.0009
 _ZN8KWayland6Server13SeatInterface16timestampChangedEj@Base 4:5.1.1+git20141128.0009
 _ZN8KWayland6Server13SeatInterface17hasPointerChangedEb@Base 4:5.1.1+git20141128.0009
 _ZN8KWayland6Server13SeatInterface17pointerPosChangedERK7QPointF@Base 4:5.1.1+git20141128.0009
 _ZN8KWayland6Server13SeatInterface18dragSurfaceChangedEv@Base 4:5.6.2
 _ZN8KWayland6Server13SeatInterface18hasKeyboardChangedEb@Base 4:5.1.1+git20141128.0009
 _ZN8KWayland6Server13SeatInterface19cancelTouchSequenceEv@Base 4:5.2.2+git20150326.0109+15.04
 _ZN8KWayland6Server13SeatInterface20pointerButtonPressedEN2Qt11MouseButtonE@Base 4:5.1.1+git20141128.0009
 _ZN8KWayland6Server13SeatInterface20pointerButtonPressedEj@Base 4:5.1.1+git20141128.0009
 _ZN8KWayland6Server13SeatInterface21focusedPointerChangedEPNS0_16PointerInterfaceE@Base 4:5.6.2
 _ZN8KWayland6Server13SeatInterface21pointerButtonReleasedEN2Qt11MouseButtonE@Base 4:5.1.1+git20141128.0009
 _ZN8KWayland6Server13SeatInterface21pointerButtonReleasedEj@Base 4:5.1.1+git20141128.0009
 _ZN8KWayland6Server13SeatInterface21relativePointerMotionERK6QSizeFS4_y@Base 4:5.28.0
 _ZN8KWayland6Server13SeatInterface22endPointerPinchGestureEv@Base 4:5.35.0
 _ZN8KWayland6Server13SeatInterface22endPointerSwipeGestureEv@Base 4:5.35.0
 _ZN8KWayland6Server13SeatInterface22setFocusedTouchSurfaceEPNS0_16SurfaceInterfaceERK7QPointF@Base 4:5.2.2+git20150326.0109+15.04
 _ZN8KWayland6Server13SeatInterface23focusedTextInputChangedEv@Base 4:5.23.0
 _ZN8KWayland6Server13SeatInterface23updateKeyboardModifiersEjjjj@Base 4:5.1.1+git20141128.0009
 _ZN8KWayland6Server13SeatInterface24setFocusedPointerSurfaceEPNS0_16SurfaceInterfaceERK10QMatrix4x4@Base 4:5.6.2
 _ZN8KWayland6Server13SeatInterface24setFocusedPointerSurfaceEPNS0_16SurfaceInterfaceERK7QPointF@Base 4:5.1.1+git20141128.0009
 _ZN8KWayland6Server13SeatInterface24startPointerPinchGestureEj@Base 4:5.35.0
 _ZN8KWayland6Server13SeatInterface24startPointerSwipeGestureEj@Base 4:5.35.0
 _ZN8KWayland6Server13SeatInterface25cancelPointerPinchGestureEv@Base 4:5.35.0
 _ZN8KWayland6Server13SeatInterface25cancelPointerSwipeGestureEv@Base 4:5.35.0
 _ZN8KWayland6Server13SeatInterface25setFocusedKeyboardSurfaceEPNS0_16SurfaceInterfaceE@Base 4:5.1.1+git20141128.0009
 _ZN8KWayland6Server13SeatInterface25updatePointerPinchGestureERK6QSizeFdd@Base 4:5.35.0
 _ZN8KWayland6Server13SeatInterface25updatePointerSwipeGestureERK6QSizeF@Base 4:5.35.0
 _ZN8KWayland6Server13SeatInterface26setFocusedTextInputSurfaceEPNS0_16SurfaceInterfaceE@Base 4:5.23.0
 _ZN8KWayland6Server13SeatInterface30setFocusedTouchSurfacePositionERK7QPointF@Base 4:5.2.2+git20150326.0109+15.04
 _ZN8KWayland6Server13SeatInterface32setFocusedPointerSurfacePositionERK7QPointF@Base 4:5.1.1+git20141128.0009
 _ZN8KWayland6Server13SeatInterface38setFocusedPointerSurfaceTransformationERK10QMatrix4x4@Base 4:5.6.2
 _ZN8KWayland6Server13SeatInterface3getEP11wl_resource@Base 4:5.1.1+git20141128.0009
 _ZN8KWayland6Server13SeatInterface7Private10getPointerEP9wl_clientP11wl_resourcej@Base 4:5.1.1+git20141128.0009
 _ZN8KWayland6Server13SeatInterface7Private11getKeyboardEP9wl_clientP11wl_resourcej@Base 4:5.1.1+git20141128.0009
 _ZN8KWayland6Server13SeatInterface7Private11s_interfaceE@Base 4:5.1.1+git20141128.0009
 _ZN8KWayland6Server13SeatInterface7Private14s_touchVersionE@Base 4:5.5.0
 _ZN8KWayland6Server13SeatInterface7Private15releaseCallbackEP9wl_clientP11wl_resource@Base 4:5.45.0
 _ZN8KWayland6Server13SeatInterface7Private15updateSelectionEPNS0_19DataDeviceInterfaceEb@Base 4:5.1.1+git20141128.0009
 _ZN8KWayland6Server13SeatInterface7Private16getTouchCallbackEP9wl_clientP11wl_resourcej@Base 4:5.1.1+git20141128.0009
 _ZN8KWayland6Server13SeatInterface7Private16s_pointerVersionE@Base 4:5.5.0
 _ZN8KWayland6Server13SeatInterface7Private16sendCapabilitiesEP11wl_resource@Base 4:5.1.1+git20141128.0009
 _ZN8KWayland6Server13SeatInterface7Private17registerTextInputEPNS0_18TextInputInterfaceE@Base 4:5.23.0
 _ZN8KWayland6Server13SeatInterface7Private17s_keyboardVersionE@Base 4:5.5.0
 _ZN8KWayland6Server13SeatInterface7Private18getPointerCallbackEP9wl_clientP11wl_resourcej@Base 4:5.1.1+git20141128.0009
 _ZN8KWayland6Server13SeatInterface7Private18registerDataDeviceEPNS0_19DataDeviceInterfaceE@Base 4:5.1.1+git20141128.0009
 _ZN8KWayland6Server13SeatInterface7Private19getKeyboardCallbackEP9wl_clientP11wl_resourcej@Base 4:5.1.1+git20141128.0009
 _ZN8KWayland6Server13SeatInterface7Private23cancelPreviousSelectionEPNS0_19DataDeviceInterfaceE@Base 4:5.28.0
 _ZN8KWayland6Server13SeatInterface7Private24updatePointerButtonStateEjNS2_7Pointer5StateE@Base 4:5.1.1+git20141128.0009
 _ZN8KWayland6Server13SeatInterface7Private25updatePointerButtonSerialEjj@Base 4:5.1.1+git20141128.0009
 _ZN8KWayland6Server13SeatInterface7Private4bindEP9wl_clientjj@Base 4:5.1.1+git20141128.0009
 _ZN8KWayland6Server13SeatInterface7Private4castEP11wl_resource@Base 4:5.1.1+git20141128.0009
 _ZN8KWayland6Server13SeatInterface7Private6unbindEP11wl_resource@Base 4:5.1.1+git20141128.0009
 _ZN8KWayland6Server13SeatInterface7Private7endDragEj@Base 4:5.6.2
 _ZN8KWayland6Server13SeatInterface7Private8getTouchEP9wl_clientP11wl_resourcej@Base 4:5.2.2+git20150326.0109+15.04
 _ZN8KWayland6Server13SeatInterface7Private8sendNameEP11wl_resource@Base 4:5.1.1+git20141128.0009
 _ZN8KWayland6Server13SeatInterface7Private9s_versionE@Base 4:5.5.0
 _ZN8KWayland6Server13SeatInterface7Private9updateKeyEjNS2_8Keyboard5StateE@Base 4:5.1.1+git20141128.0009
 _ZN8KWayland6Server13SeatInterface7PrivateC1EPS1_PNS0_7DisplayE@Base 4:5.1.1+git20141128.0009
 _ZN8KWayland6Server13SeatInterface7PrivateC2EPS1_PNS0_7DisplayE@Base 4:5.1.1+git20141128.0009
 _ZN8KWayland6Server13SeatInterface7setNameERK7QString@Base 4:5.1.1+git20141128.0009
 _ZN8KWayland6Server13SeatInterface7touchUpEi@Base 4:5.2.2+git20150326.0109+15.04
 _ZN8KWayland6Server13SeatInterface9dragEndedEv@Base 4:5.6.2
 _ZN8KWayland6Server13SeatInterface9setKeymapEij@Base 4:5.1.1+git20141128.0009
 _ZN8KWayland6Server13SeatInterface9touchDownERK7QPointF@Base 4:5.2.2+git20150326.0109+15.04
 _ZN8KWayland6Server13SeatInterface9touchMoveEiRK7QPointF@Base 4:5.2.2+git20150326.0109+15.04
 _ZN8KWayland6Server13SeatInterfaceC1EPNS0_7DisplayEP7QObject@Base 4:5.1.1+git20141128.0009
 _ZN8KWayland6Server13SeatInterfaceC2EPNS0_7DisplayEP7QObject@Base 4:5.1.1+git20141128.0009
 _ZN8KWayland6Server13SeatInterfaceD0Ev@Base 4:5.1.1+git20141128.0009
 _ZN8KWayland6Server13SeatInterfaceD1Ev@Base 4:5.1.1+git20141128.0009
 _ZN8KWayland6Server13SeatInterfaceD2Ev@Base 4:5.1.1+git20141128.0009
 _ZN8KWayland6Server14ShellInterface11qt_metacallEN11QMetaObject4CallEiPPv@Base 4:5.1.1+git20141128.0009
 _ZN8KWayland6Server14ShellInterface11qt_metacastEPKc@Base 4:5.1.1+git20141128.0009
 _ZN8KWayland6Server14ShellInterface14surfaceCreatedEPNS0_21ShellSurfaceInterfaceE@Base 4:5.1.1+git20141128.0009
 _ZN8KWayland6Server14ShellInterface16staticMetaObjectE@Base 4:5.1.1+git20141128.0009
 _ZN8KWayland6Server14ShellInterface7Private11s_interfaceE@Base 4:5.1.1+git20141128.0009
 _ZN8KWayland6Server14ShellInterface7Private13createSurfaceEP9wl_clientjjPNS0_16SurfaceInterfaceEP11wl_resource@Base 4:5.1.1+git20141128.0009
 _ZN8KWayland6Server14ShellInterface7Private21createSurfaceCallbackEP9wl_clientP11wl_resourcejS6_@Base 4:5.1.1+git20141128.0009
 _ZN8KWayland6Server14ShellInterface7Private4bindEP9wl_clientjj@Base 4:5.1.1+git20141128.0009
 _ZN8KWayland6Server14ShellInterface7Private9s_versionE@Base 4:5.5.0
 _ZN8KWayland6Server14ShellInterface7PrivateC1EPS1_PNS0_7DisplayE@Base 4:5.1.1+git20141128.0009
 _ZN8KWayland6Server14ShellInterface7PrivateC2EPS1_PNS0_7DisplayE@Base 4:5.1.1+git20141128.0009
 _ZN8KWayland6Server14ShellInterfaceC1EPNS0_7DisplayEP7QObject@Base 4:5.1.1+git20141128.0009
 _ZN8KWayland6Server14ShellInterfaceC2EPNS0_7DisplayEP7QObject@Base 4:5.1.1+git20141128.0009
 _ZN8KWayland6Server14ShellInterfaceD0Ev@Base 4:5.1.1+git20141128.0009
 _ZN8KWayland6Server14ShellInterfaceD1Ev@Base 4:5.1.1+git20141128.0009
 _ZN8KWayland6Server14ShellInterfaceD2Ev@Base 4:5.1.1+git20141128.0009
 _ZN8KWayland6Server14SlideInterface11qt_metacallEN11QMetaObject4CallEiPPv@Base 4:5.5.0
 _ZN8KWayland6Server14SlideInterface11qt_metacastEPKc@Base 4:5.5.0
 _ZN8KWayland6Server14SlideInterface16staticMetaObjectE@Base 4:5.5.0
 _ZN8KWayland6Server14SlideInterface7Private11s_interfaceE@Base 4:5.5.0
 _ZN8KWayland6Server14SlideInterface7Private14commitCallbackEP9wl_clientP11wl_resource@Base 4:5.5.0
 _ZN8KWayland6Server14SlideInterface7Private17setOffsetCallbackEP9wl_clientP11wl_resourcei@Base 4:5.5.0
 _ZN8KWayland6Server14SlideInterface7Private19setLocationCallbackEP9wl_clientP11wl_resourcej@Base 4:5.5.0
 _ZN8KWayland6Server14SlideInterface7PrivateC1EPS1_PNS0_21SlideManagerInterfaceEP11wl_resource@Base 4:5.5.0
 _ZN8KWayland6Server14SlideInterface7PrivateC2EPS1_PNS0_21SlideManagerInterfaceEP11wl_resource@Base 4:5.5.0
 _ZN8KWayland6Server14SlideInterface7PrivateD0Ev@Base 4:5.5.0
 _ZN8KWayland6Server14SlideInterface7PrivateD1Ev@Base 4:5.5.0
 _ZN8KWayland6Server14SlideInterface7PrivateD2Ev@Base 4:5.5.0
 _ZN8KWayland6Server14SlideInterfaceC1EPNS0_21SlideManagerInterfaceEP11wl_resource@Base 4:5.5.0
 _ZN8KWayland6Server14SlideInterfaceC2EPNS0_21SlideManagerInterfaceEP11wl_resource@Base 4:5.5.0
 _ZN8KWayland6Server14SlideInterfaceD0Ev@Base 4:5.5.0
 _ZN8KWayland6Server14SlideInterfaceD1Ev@Base 4:5.5.0
 _ZN8KWayland6Server14SlideInterfaceD2Ev@Base 4:5.5.0
 _ZN8KWayland6Server14TouchInterface11qt_metacallEN11QMetaObject4CallEiPPv@Base 4:5.2.2+git20150326.0109+15.04
 _ZN8KWayland6Server14TouchInterface11qt_metacastEPKc@Base 4:5.2.2+git20150326.0109+15.04
 _ZN8KWayland6Server14TouchInterface16staticMetaObjectE@Base 4:5.2.2+git20150326.0109+15.04
 _ZN8KWayland6Server14TouchInterface2upEij@Base 4:5.2.2+git20150326.0109+15.04
 _ZN8KWayland6Server14TouchInterface4downEijRK7QPointF@Base 4:5.2.2+git20150326.0109+15.04
 _ZN8KWayland6Server14TouchInterface4moveEiRK7QPointF@Base 4:5.2.2+git20150326.0109+15.04
 _ZN8KWayland6Server14TouchInterface5frameEv@Base 4:5.2.2+git20150326.0109+15.04
 _ZN8KWayland6Server14TouchInterface6cancelEv@Base 4:5.2.2+git20150326.0109+15.04
 _ZN8KWayland6Server14TouchInterface7Private11s_interfaceE@Base 4:5.2.2+git20150326.0109+15.04
 _ZN8KWayland6Server14TouchInterface7PrivateC1EPNS0_13SeatInterfaceEP11wl_resourcePS1_@Base 4:5.2.2+git20150326.0109+15.04
 _ZN8KWayland6Server14TouchInterface7PrivateC2EPNS0_13SeatInterfaceEP11wl_resourcePS1_@Base 4:5.2.2+git20150326.0109+15.04
 _ZN8KWayland6Server14TouchInterfaceC1EPNS0_13SeatInterfaceEP11wl_resource@Base 4:5.2.2+git20150326.0109+15.04
 _ZN8KWayland6Server14TouchInterfaceC2EPNS0_13SeatInterfaceEP11wl_resource@Base 4:5.2.2+git20150326.0109+15.04
 _ZN8KWayland6Server14TouchInterfaceD0Ev@Base 4:5.2.2+git20150326.0109+15.04
 _ZN8KWayland6Server14TouchInterfaceD1Ev@Base 4:5.2.2+git20150326.0109+15.04
 _ZN8KWayland6Server14TouchInterfaceD2Ev@Base 4:5.2.2+git20150326.0109+15.04
 _ZN8KWayland6Server15BufferInterface11qt_metacallEN11QMetaObject4CallEiPPv@Base 4:5.1.1+git20141128.0009
 _ZN8KWayland6Server15BufferInterface11qt_metacastEPKc@Base 4:5.1.1+git20141128.0009
 _ZN8KWayland6Server15BufferInterface11sizeChangedEv@Base 4:5.2.1+git20150303.0028+15.04
 _ZN8KWayland6Server15BufferInterface16staticMetaObjectE@Base 4:5.1.1+git20141128.0009
 _ZN8KWayland6Server15BufferInterface17linuxDmabufBufferEv@Base 4:5.62.0
 _ZN8KWayland6Server15BufferInterface18aboutToBeDestroyedEPS1_@Base 4:5.1.1+git20141128.0009
 _ZN8KWayland6Server15BufferInterface3getEP11wl_resource@Base 4:5.2.2+git20150407.0736
 _ZN8KWayland6Server15BufferInterface3refEv@Base 4:5.1.1+git20141128.0009
 _ZN8KWayland6Server15BufferInterface4dataEv@Base 4:5.1.1+git20141128.0009
 _ZN8KWayland6Server15BufferInterface5unrefEv@Base 4:5.1.1+git20141128.0009
 _ZN8KWayland6Server15BufferInterface7Private11createImageEv@Base 4:5.1.1+git20141128.0009
 _ZN8KWayland6Server15BufferInterface7Private15s_accessCounterE@Base 4:5.1.1+git20141128.0009
 _ZN8KWayland6Server15BufferInterface7Private16s_accessedBufferE@Base 4:5.1.1+git20141128.0009
 _ZN8KWayland6Server15BufferInterface7Private23destroyListenerCallbackEP11wl_listenerPv@Base 4:5.1.1+git20141128.0009
 _ZN8KWayland6Server15BufferInterface7Private25imageBufferCleanupHandlerEPv@Base 4:5.1.1+git20141128.0009
 _ZN8KWayland6Server15BufferInterface7Private3getEP11wl_resource@Base 4:5.2.2+git20150407.0736
 _ZN8KWayland6Server15BufferInterface7Private4castEP11wl_resource@Base 4:5.1.1+git20141128.0009
 _ZN8KWayland6Server15BufferInterface7Private9s_buffersE@Base 4:5.1.1+git20141128.0009
 _ZN8KWayland6Server15BufferInterface7PrivateC1EPS1_P11wl_resourcePNS0_16SurfaceInterfaceE@Base 4:5.1.1+git20141128.0009
 _ZN8KWayland6Server15BufferInterface7PrivateC2EPS1_P11wl_resourcePNS0_16SurfaceInterfaceE@Base 4:5.1.1+git20141128.0009
 _ZN8KWayland6Server15BufferInterface7PrivateD1Ev@Base 4:5.1.1+git20141128.0009
 _ZN8KWayland6Server15BufferInterface7PrivateD2Ev@Base 4:5.1.1+git20141128.0009
 _ZN8KWayland6Server15BufferInterface7setSizeERK5QSize@Base 4:5.2.1+git20150303.0028+15.04
 _ZN8KWayland6Server15BufferInterface9shmBufferEv@Base 4:5.1.1+git20141128.0009
 _ZN8KWayland6Server15BufferInterfaceC1EP11wl_resourcePNS0_16SurfaceInterfaceE@Base 4:5.1.1+git20141128.0009
 _ZN8KWayland6Server15BufferInterfaceC2EP11wl_resourcePNS0_16SurfaceInterfaceE@Base 4:5.1.1+git20141128.0009
 _ZN8KWayland6Server15BufferInterfaceD0Ev@Base 4:5.1.1+git20141128.0009
 _ZN8KWayland6Server15BufferInterfaceD1Ev@Base 4:5.1.1+git20141128.0009
 _ZN8KWayland6Server15BufferInterfaceD2Ev@Base 4:5.1.1+git20141128.0009
 _ZN8KWayland6Server15FakeInputDevice11qt_metacallEN11QMetaObject4CallEiPPv@Base 4:5.4.0
 _ZN8KWayland6Server15FakeInputDevice11qt_metacastEPKc@Base 4:5.4.0
 _ZN8KWayland6Server15FakeInputDevice16staticMetaObjectE@Base 4:5.4.0
 _ZN8KWayland6Server15FakeInputDevice16touchUpRequestedEj@Base 4:5.23.0
 _ZN8KWayland6Server15FakeInputDevice17setAuthenticationEb@Base 4:5.4.0
 _ZN8KWayland6Server15FakeInputDevice18touchDownRequestedEjRK7QPointF@Base 4:5.23.0
 _ZN8KWayland6Server15FakeInputDevice19touchFrameRequestedEv@Base 4:5.23.0
 _ZN8KWayland6Server15FakeInputDevice20pointerAxisRequestedEN2Qt11OrientationEd@Base 4:5.4.0
 _ZN8KWayland6Server15FakeInputDevice20touchCancelRequestedEv@Base 4:5.23.0
 _ZN8KWayland6Server15FakeInputDevice20touchMotionRequestedEjRK7QPointF@Base 4:5.23.0
 _ZN8KWayland6Server15FakeInputDevice22pointerMotionRequestedERK6QSizeF@Base 4:5.4.0
 _ZN8KWayland6Server15FakeInputDevice23authenticationRequestedERK7QStringS4_@Base 4:5.4.0
 _ZN8KWayland6Server15FakeInputDevice25keyboardKeyPressRequestedEj@Base 4:5.69.0
 _ZN8KWayland6Server15FakeInputDevice27keyboardKeyReleaseRequestedEj@Base 4:5.69.0
 _ZN8KWayland6Server15FakeInputDevice27pointerButtonPressRequestedEj@Base 4:5.4.0
 _ZN8KWayland6Server15FakeInputDevice29pointerButtonReleaseRequestedEj@Base 4:5.4.0
 _ZN8KWayland6Server15FakeInputDevice30pointerMotionAbsoluteRequestedERK7QPointF@Base 4:5.61.0
 _ZN8KWayland6Server15FakeInputDevice7PrivateC1EP11wl_resourcePNS0_18FakeInputInterfaceE@Base 4:5.69.0
 _ZN8KWayland6Server15FakeInputDevice7PrivateC2EP11wl_resourcePNS0_18FakeInputInterfaceE@Base 4:5.69.0
 _ZN8KWayland6Server15FakeInputDevice8resourceEv@Base 4:5.4.0
 _ZN8KWayland6Server15FakeInputDeviceC1EP11wl_resourcePNS0_18FakeInputInterfaceE@Base 4:5.4.0
 _ZN8KWayland6Server15FakeInputDeviceC2EP11wl_resourcePNS0_18FakeInputInterfaceE@Base 4:5.4.0
 _ZN8KWayland6Server15FakeInputDeviceD0Ev@Base 4:5.4.0
 _ZN8KWayland6Server15FakeInputDeviceD1Ev@Base 4:5.4.0
 _ZN8KWayland6Server15FakeInputDeviceD2Ev@Base 4:5.4.0
 _ZN8KWayland6Server15FilteredDisplay11qt_metacallEN11QMetaObject4CallEiPPv@Base 4:5.41.0
 _ZN8KWayland6Server15FilteredDisplay11qt_metacastEPKc@Base 4:5.41.0
 _ZN8KWayland6Server15FilteredDisplay16staticMetaObjectE@Base 4:5.41.0
 _ZN8KWayland6Server15FilteredDisplay7PrivateC1EPS1_@Base 4:5.41.0
 _ZN8KWayland6Server15FilteredDisplay7PrivateC2EPS1_@Base 4:5.41.0
 _ZN8KWayland6Server15FilteredDisplayC1EP7QObject@Base 4:5.41.0
 _ZN8KWayland6Server15FilteredDisplayC2EP7QObject@Base 4:5.41.0
 _ZN8KWayland6Server15FilteredDisplayD0Ev@Base 4:5.41.0
 _ZN8KWayland6Server15FilteredDisplayD1Ev@Base 4:5.41.0
 _ZN8KWayland6Server15FilteredDisplayD2Ev@Base 4:5.41.0
 _ZN8KWayland6Server15OutputChangeSet11qt_metacallEN11QMetaObject4CallEiPPv@Base 4:5.5.0
 _ZN8KWayland6Server15OutputChangeSet11qt_metacastEPKc@Base 4:5.5.0
 _ZN8KWayland6Server15OutputChangeSet16staticMetaObjectE@Base 4:5.5.0
 _ZN8KWayland6Server15OutputChangeSet7PrivateC1EPNS0_21OutputDeviceInterfaceEPS1_@Base 4:5.5.0
 _ZN8KWayland6Server15OutputChangeSet7PrivateC2EPNS0_21OutputDeviceInterfaceEPS1_@Base 4:5.5.0
 _ZN8KWayland6Server15OutputChangeSet7PrivateD1Ev@Base 4:5.5.0
 _ZN8KWayland6Server15OutputChangeSet7PrivateD2Ev@Base 4:5.5.0
 _ZN8KWayland6Server15OutputChangeSetC1EPNS0_21OutputDeviceInterfaceEP7QObject@Base 4:5.5.0
 _ZN8KWayland6Server15OutputChangeSetC2EPNS0_21OutputDeviceInterfaceEP7QObject@Base 4:5.5.0
 _ZN8KWayland6Server15OutputChangeSetD0Ev@Base 4:5.5.0
 _ZN8KWayland6Server15OutputChangeSetD1Ev@Base 4:5.5.0
 _ZN8KWayland6Server15OutputChangeSetD2Ev@Base 4:5.5.0
 _ZN8KWayland6Server15OutputInterface11qt_metacallEN11QMetaObject4CallEiPPv@Base 4:5.1.1+git20141128.0009
 _ZN8KWayland6Server15OutputInterface11qt_metacastEPKc@Base 4:5.1.1+git20141128.0009
 _ZN8KWayland6Server15OutputInterface11setDpmsModeENS1_8DpmsModeE@Base 4:5.5.0
 _ZN8KWayland6Server15OutputInterface11setSubPixelENS1_8SubPixelE@Base 4:5.1.1+git20141128.0009
 _ZN8KWayland6Server15OutputInterface12modelChangedERK7QString@Base 4:5.1.1+git20141128.0009
 _ZN8KWayland6Server15OutputInterface12modesChangedEv@Base 4:5.1.1+git20141128.0009
 _ZN8KWayland6Server15OutputInterface12scaleChangedEi@Base 4:5.1.1+git20141128.0009
 _ZN8KWayland6Server15OutputInterface12setTransformENS1_9TransformE@Base 4:5.1.1+git20141128.0009
 _ZN8KWayland6Server15OutputInterface14setCurrentModeERK5QSizei@Base 4:5.1.1+git20141128.0009
 _ZN8KWayland6Server15OutputInterface15dpmsModeChangedEv@Base 4:5.5.0
 _ZN8KWayland6Server15OutputInterface15setManufacturerERK7QString@Base 4:5.1.1+git20141128.0009
 _ZN8KWayland6Server15OutputInterface15setPhysicalSizeERK5QSize@Base 4:5.1.1+git20141128.0009
 _ZN8KWayland6Server15OutputInterface15subPixelChangedENS1_8SubPixelE@Base 4:5.1.1+git20141128.0009
 _ZN8KWayland6Server15OutputInterface16pixelSizeChangedERK5QSize@Base 4:5.1.1+git20141128.0009
 _ZN8KWayland6Server15OutputInterface16setDpmsSupportedEb@Base 4:5.5.0
 _ZN8KWayland6Server15OutputInterface16staticMetaObjectE@Base 4:5.1.1+git20141128.0009
 _ZN8KWayland6Server15OutputInterface16transformChangedENS1_9TransformE@Base 4:5.1.1+git20141128.0009
 _ZN8KWayland6Server15OutputInterface17dpmsModeRequestedENS1_8DpmsModeE@Base 4:5.5.0
 _ZN8KWayland6Server15OutputInterface17setGlobalPositionERK6QPoint@Base 4:5.1.1+git20141128.0009
 _ZN8KWayland6Server15OutputInterface18currentModeChangedEv@Base 4:5.1.1+git20141128.0009
 _ZN8KWayland6Server15OutputInterface18refreshRateChangedEi@Base 4:5.1.1+git20141128.0009
 _ZN8KWayland6Server15OutputInterface19manufacturerChangedERK7QString@Base 4:5.1.1+git20141128.0009
 _ZN8KWayland6Server15OutputInterface19physicalSizeChangedERK5QSize@Base 4:5.1.1+git20141128.0009
 _ZN8KWayland6Server15OutputInterface20dpmsSupportedChangedEv@Base 4:5.5.0
 _ZN8KWayland6Server15OutputInterface21globalPositionChangedERK6QPoint@Base 4:5.1.1+git20141128.0009
 _ZN8KWayland6Server15OutputInterface3getEP11wl_resource@Base 4:5.5.0
 _ZN8KWayland6Server15OutputInterface7Private10s_privatesE@Base 4:5.5.0
 _ZN8KWayland6Server15OutputInterface7Private11s_interfaceE@Base 4:5.45.0
 _ZN8KWayland6Server15OutputInterface7Private11updateScaleEv@Base 4:5.1.1+git20141128.0009
 _ZN8KWayland6Server15OutputInterface7Private12sendGeometryEP11wl_resource@Base 4:5.1.1+git20141128.0009
 _ZN8KWayland6Server15OutputInterface7Private14updateGeometryEv@Base 4:5.1.1+git20141128.0009
 _ZN8KWayland6Server15OutputInterface7Private15releaseCallbackEP9wl_clientP11wl_resource@Base 4:5.45.0
 _ZN8KWayland6Server15OutputInterface7Private3getEP11wl_resource@Base 4:5.5.0
 _ZN8KWayland6Server15OutputInterface7Private4bindEP9wl_clientjj@Base 4:5.1.1+git20141128.0009
 _ZN8KWayland6Server15OutputInterface7Private4castEP11wl_resource@Base 4:5.5.0
 _ZN8KWayland6Server15OutputInterface7Private6unbindEP11wl_resource@Base 4:5.1.1+git20141128.0009
 _ZN8KWayland6Server15OutputInterface7Private8sendDoneERKNS2_12ResourceDataE@Base 4:5.1.1+git20141128.0009
 _ZN8KWayland6Server15OutputInterface7Private8sendModeEP11wl_resourceRKNS1_4ModeE@Base 4:5.1.1+git20141128.0009
 _ZN8KWayland6Server15OutputInterface7Private9s_versionE@Base 4:5.5.0
 _ZN8KWayland6Server15OutputInterface7Private9sendScaleERKNS2_12ResourceDataE@Base 4:5.1.1+git20141128.0009
 _ZN8KWayland6Server15OutputInterface7PrivateC1EPS1_PNS0_7DisplayE@Base 4:5.1.1+git20141128.0009
 _ZN8KWayland6Server15OutputInterface7PrivateC2EPS1_PNS0_7DisplayE@Base 4:5.1.1+git20141128.0009
 _ZN8KWayland6Server15OutputInterface7PrivateD0Ev@Base 4:5.5.0
 _ZN8KWayland6Server15OutputInterface7PrivateD1Ev@Base 4:5.5.0
 _ZN8KWayland6Server15OutputInterface7PrivateD2Ev@Base 4:5.5.0
 _ZN8KWayland6Server15OutputInterface7addModeERK5QSize6QFlagsINS1_8ModeFlagEEi@Base 4:5.1.1+git20141128.0009
 _ZN8KWayland6Server15OutputInterface8setModelERK7QString@Base 4:5.1.1+git20141128.0009
 _ZN8KWayland6Server15OutputInterface8setScaleEi@Base 4:5.1.1+git20141128.0009
 _ZN8KWayland6Server15OutputInterfaceC1EPNS0_7DisplayEP7QObject@Base 4:5.1.1+git20141128.0009
 _ZN8KWayland6Server15OutputInterfaceC2EPNS0_7DisplayEP7QObject@Base 4:5.1.1+git20141128.0009
 _ZN8KWayland6Server15OutputInterfaceD0Ev@Base 4:5.1.1+git20141128.0009
 _ZN8KWayland6Server15OutputInterfaceD1Ev@Base 4:5.1.1+git20141128.0009
 _ZN8KWayland6Server15OutputInterfaceD2Ev@Base 4:5.1.1+git20141128.0009
 _ZN8KWayland6Server15RegionInterface11qt_metacallEN11QMetaObject4CallEiPPv@Base 4:5.1.1+git20141128.0009
 _ZN8KWayland6Server15RegionInterface11qt_metacastEPKc@Base 4:5.1.1+git20141128.0009
 _ZN8KWayland6Server15RegionInterface13regionChangedERK7QRegion@Base 4:5.1.1+git20141128.0009
 _ZN8KWayland6Server15RegionInterface16staticMetaObjectE@Base 4:5.1.1+git20141128.0009
 _ZN8KWayland6Server15RegionInterface3getEP11wl_resource@Base 4:5.1.1+git20141128.0009
 _ZN8KWayland6Server15RegionInterface7Private11addCallbackEP9wl_clientP11wl_resourceiiii@Base 4:5.1.1+git20141128.0009
 _ZN8KWayland6Server15RegionInterface7Private11s_interfaceE@Base 4:5.1.1+git20141128.0009
 _ZN8KWayland6Server15RegionInterface7Private16subtractCallbackEP9wl_clientP11wl_resourceiiii@Base 4:5.1.1+git20141128.0009
 _ZN8KWayland6Server15RegionInterface7Private3addERK5QRect@Base 4:5.1.1+git20141128.0009
 _ZN8KWayland6Server15RegionInterface7Private8subtractERK5QRect@Base 4:5.1.1+git20141128.0009
 _ZN8KWayland6Server15RegionInterface7PrivateC1EPNS0_19CompositorInterfaceEPS1_P11wl_resource@Base 4:5.1.1+git20141128.0009
 _ZN8KWayland6Server15RegionInterface7PrivateC2EPNS0_19CompositorInterfaceEPS1_P11wl_resource@Base 4:5.1.1+git20141128.0009
 _ZN8KWayland6Server15RegionInterface7PrivateD0Ev@Base 4:5.1.1+git20141128.0009
 _ZN8KWayland6Server15RegionInterface7PrivateD1Ev@Base 4:5.1.1+git20141128.0009
 _ZN8KWayland6Server15RegionInterface7PrivateD2Ev@Base 4:5.1.1+git20141128.0009
 _ZN8KWayland6Server15RegionInterfaceC1EPNS0_19CompositorInterfaceEP11wl_resource@Base 4:5.1.1+git20141128.0009
 _ZN8KWayland6Server15RegionInterfaceC2EPNS0_19CompositorInterfaceEP11wl_resource@Base 4:5.1.1+git20141128.0009
 _ZN8KWayland6Server15RegionInterfaceD0Ev@Base 4:5.1.1+git20141128.0009
 _ZN8KWayland6Server15RegionInterfaceD1Ev@Base 4:5.1.1+git20141128.0009
 _ZN8KWayland6Server15RegionInterfaceD2Ev@Base 4:5.1.1+git20141128.0009
 _ZN8KWayland6Server15ShadowInterface11qt_metacallEN11QMetaObject4CallEiPPv@Base 4:5.4.0
 _ZN8KWayland6Server15ShadowInterface11qt_metacastEPKc@Base 4:5.4.0
 _ZN8KWayland6Server15ShadowInterface16staticMetaObjectE@Base 4:5.4.0
 _ZN8KWayland6Server15ShadowInterface7Private11s_interfaceE@Base 4:5.4.0
 _ZN8KWayland6Server15ShadowInterface7Private14commitCallbackEP9wl_clientP11wl_resource@Base 4:5.4.0
 _ZN8KWayland6Server15ShadowInterface7Private17attachTopCallbackEP9wl_clientP11wl_resourceS6_@Base 4:5.4.0
 _ZN8KWayland6Server15ShadowInterface7Private17offsetTopCallbackEP9wl_clientP11wl_resourcei@Base 4:5.4.0
 _ZN8KWayland6Server15ShadowInterface7Private18attachLeftCallbackEP9wl_clientP11wl_resourceS6_@Base 4:5.4.0
 _ZN8KWayland6Server15ShadowInterface7Private18offsetLeftCallbackEP9wl_clientP11wl_resourcei@Base 4:5.4.0
 _ZN8KWayland6Server15ShadowInterface7Private19attachRightCallbackEP9wl_clientP11wl_resourceS6_@Base 4:5.4.0
 _ZN8KWayland6Server15ShadowInterface7Private19offsetRightCallbackEP9wl_clientP11wl_resourcei@Base 4:5.4.0
 _ZN8KWayland6Server15ShadowInterface7Private20attachBottomCallbackEP9wl_clientP11wl_resourceS6_@Base 4:5.4.0
 _ZN8KWayland6Server15ShadowInterface7Private20offsetBottomCallbackEP9wl_clientP11wl_resourcei@Base 4:5.4.0
 _ZN8KWayland6Server15ShadowInterface7Private21attachTopLeftCallbackEP9wl_clientP11wl_resourceS6_@Base 4:5.4.0
 _ZN8KWayland6Server15ShadowInterface7Private22attachTopRightCallbackEP9wl_clientP11wl_resourceS6_@Base 4:5.4.0
 _ZN8KWayland6Server15ShadowInterface7Private24attachBottomLeftCallbackEP9wl_clientP11wl_resourceS6_@Base 4:5.4.0
 _ZN8KWayland6Server15ShadowInterface7Private25attachBottomRightCallbackEP9wl_clientP11wl_resourceS6_@Base 4:5.4.0
 _ZN8KWayland6Server15ShadowInterface7Private6attachENS2_5State5FlagsEP11wl_resource@Base 4:5.4.0
 _ZN8KWayland6Server15ShadowInterface7Private6commitEv@Base 4:5.4.0
 _ZN8KWayland6Server15ShadowInterface7PrivateC1EPS1_PNS0_22ShadowManagerInterfaceEP11wl_resource@Base 4:5.4.0
 _ZN8KWayland6Server15ShadowInterface7PrivateC2EPS1_PNS0_22ShadowManagerInterfaceEP11wl_resource@Base 4:5.4.0
 _ZN8KWayland6Server15ShadowInterface7PrivateD0Ev@Base 4:5.4.0
 _ZN8KWayland6Server15ShadowInterface7PrivateD1Ev@Base 4:5.4.0
 _ZN8KWayland6Server15ShadowInterface7PrivateD2Ev@Base 4:5.4.0
 _ZN8KWayland6Server15ShadowInterfaceC1EPNS0_22ShadowManagerInterfaceEP11wl_resource@Base 4:5.4.0
 _ZN8KWayland6Server15ShadowInterfaceC2EPNS0_22ShadowManagerInterfaceEP11wl_resource@Base 4:5.4.0
 _ZN8KWayland6Server15ShadowInterfaceD0Ev@Base 4:5.4.0
 _ZN8KWayland6Server15ShadowInterfaceD1Ev@Base 4:5.4.0
 _ZN8KWayland6Server15ShadowInterfaceD2Ev@Base 4:5.4.0
 _ZN8KWayland6Server15TabletInterface11qt_metacallEN11QMetaObject4CallEiPPv@Base 4:5.69.0
 _ZN8KWayland6Server15TabletInterface11qt_metacastEPKc@Base 4:5.69.0
 _ZN8KWayland6Server15TabletInterface11sendRemovedEv@Base 4:5.69.0
 _ZN8KWayland6Server15TabletInterface16staticMetaObjectE@Base 4:5.69.0
 _ZN8KWayland6Server15TabletInterfaceC1EjjRK7QStringRK11QStringListP7QObject@Base 4:5.69.0
 _ZN8KWayland6Server15TabletInterfaceC2EjjRK7QStringRK11QStringListP7QObject@Base 4:5.69.0
 _ZN8KWayland6Server15TabletInterfaceD0Ev@Base 4:5.69.0
 _ZN8KWayland6Server15TabletInterfaceD1Ev@Base 4:5.69.0
 _ZN8KWayland6Server15TabletInterfaceD2Ev@Base 4:5.69.0
 _ZN8KWayland6Server16AppMenuInterface11qt_metacallEN11QMetaObject4CallEiPPv@Base 4:5.42.0
 _ZN8KWayland6Server16AppMenuInterface11qt_metacastEPKc@Base 4:5.42.0
 _ZN8KWayland6Server16AppMenuInterface14addressChangedENS1_16InterfaceAddressE@Base 4:5.42.0
 _ZN8KWayland6Server16AppMenuInterface16staticMetaObjectE@Base 4:5.42.0
 _ZN8KWayland6Server16AppMenuInterface7Private11s_interfaceE@Base 4:5.42.0
 _ZN8KWayland6Server16AppMenuInterface7Private18setAddressCallbackEP9wl_clientP11wl_resourcePKcS8_@Base 4:5.42.0
 _ZN8KWayland6Server16AppMenuInterface7PrivateC1EPS1_PNS0_23AppMenuManagerInterfaceEPNS0_16SurfaceInterfaceEP11wl_resource@Base 4:5.42.0
 _ZN8KWayland6Server16AppMenuInterface7PrivateC2EPS1_PNS0_23AppMenuManagerInterfaceEPNS0_16SurfaceInterfaceEP11wl_resource@Base 4:5.42.0
 _ZN8KWayland6Server16AppMenuInterface7PrivateD0Ev@Base 4:5.42.0
 _ZN8KWayland6Server16AppMenuInterface7PrivateD1Ev@Base 4:5.42.0
 _ZN8KWayland6Server16AppMenuInterface7PrivateD2Ev@Base 4:5.42.0
 _ZN8KWayland6Server16AppMenuInterfaceC1EPNS0_23AppMenuManagerInterfaceEPNS0_16SurfaceInterfaceEP11wl_resource@Base 4:5.42.0
 _ZN8KWayland6Server16AppMenuInterfaceC2EPNS0_23AppMenuManagerInterfaceEPNS0_16SurfaceInterfaceEP11wl_resource@Base 4:5.42.0
 _ZN8KWayland6Server16AppMenuInterfaceD0Ev@Base 4:5.42.0
 _ZN8KWayland6Server16AppMenuInterfaceD1Ev@Base 4:5.42.0
 _ZN8KWayland6Server16AppMenuInterfaceD2Ev@Base 4:5.42.0
 _ZN8KWayland6Server16ClientConnection11getResourceEj@Base 4:5.2.2+git20150407.0736
 _ZN8KWayland6Server16ClientConnection11qt_metacallEN11QMetaObject4CallEiPPv@Base 4:5.1.1+git20141128.0009
 _ZN8KWayland6Server16ClientConnection11qt_metacastEPKc@Base 4:5.1.1+git20141128.0009
 _ZN8KWayland6Server16ClientConnection12disconnectedEPS1_@Base 4:5.1.1+git20141128.0009
 _ZN8KWayland6Server16ClientConnection14createResourceEPK12wl_interfacejj@Base 4:5.1.1+git20141128.0009
 _ZN8KWayland6Server16ClientConnection16staticMetaObjectE@Base 4:5.1.1+git20141128.0009
 _ZN8KWayland6Server16ClientConnection5flushEv@Base 4:5.1.1+git20141128.0009
 _ZN8KWayland6Server16ClientConnection6clientEv@Base 4:5.1.1+git20141128.0009
 _ZN8KWayland6Server16ClientConnection7Private12s_allClientsE@Base 4:5.1.1+git20141128.0009
 _ZN8KWayland6Server16ClientConnection7Private23destroyListenerCallbackEP11wl_listenerPv@Base 4:5.1.1+git20141128.0009
 _ZN8KWayland6Server16ClientConnection7PrivateC1EP9wl_clientPNS0_7DisplayEPS1_@Base 4:5.1.1+git20141128.0009
 _ZN8KWayland6Server16ClientConnection7PrivateC2EP9wl_clientPNS0_7DisplayEPS1_@Base 4:5.1.1+git20141128.0009
 _ZN8KWayland6Server16ClientConnection7PrivateD1Ev@Base 4:5.1.1+git20141128.0009
 _ZN8KWayland6Server16ClientConnection7PrivateD2Ev@Base 4:5.1.1+git20141128.0009
 _ZN8KWayland6Server16ClientConnection7destroyEv@Base 4:5.5.0
 _ZN8KWayland6Server16ClientConnection7displayEv@Base 4:5.1.1+git20141128.0009
 _ZN8KWayland6Server16ClientConnectionC1EP9wl_clientPNS0_7DisplayE@Base 4:5.1.1+git20141128.0009
 _ZN8KWayland6Server16ClientConnectionC2EP9wl_clientPNS0_7DisplayE@Base 4:5.1.1+git20141128.0009
 _ZN8KWayland6Server16ClientConnectionD0Ev@Base 4:5.1.1+git20141128.0009
 _ZN8KWayland6Server16ClientConnectionD1Ev@Base 4:5.1.1+git20141128.0009
 _ZN8KWayland6Server16ClientConnectionD2Ev@Base 4:5.1.1+git20141128.0009
 _ZN8KWayland6Server16ClientConnectioncvP9wl_clientEv@Base 4:5.1.1+git20141128.0009
 _ZN8KWayland6Server16PointerInterface11qt_metacallEN11QMetaObject4CallEiPPv@Base 4:5.1.1+git20141128.0009
 _ZN8KWayland6Server16PointerInterface11qt_metacastEPKc@Base 4:5.1.1+git20141128.0009
 _ZN8KWayland6Server16PointerInterface13buttonPressedEjj@Base 4:5.1.1+git20141128.0009
 _ZN8KWayland6Server16PointerInterface13cursorChangedEv@Base 4:5.2.1+git20150228.0043+15.04
 _ZN8KWayland6Server16PointerInterface14buttonReleasedEjj@Base 4:5.1.1+git20141128.0009
 _ZN8KWayland6Server16PointerInterface14relativeMotionERK6QSizeFS4_y@Base 4:5.28.0
 _ZN8KWayland6Server16PointerInterface16staticMetaObjectE@Base 4:5.1.1+git20141128.0009
 _ZN8KWayland6Server16PointerInterface17setFocusedSurfaceEPNS0_16SurfaceInterfaceEj@Base 4:5.1.1+git20141128.0009
 _ZN8KWayland6Server16PointerInterface3getEP11wl_resource@Base 4:5.28.0
 _ZN8KWayland6Server16PointerInterface4axisEN2Qt11OrientationEdiNS0_17PointerAxisSourceE@Base 4:5.61.0
 _ZN8KWayland6Server16PointerInterface4axisEN2Qt11OrientationEj@Base 4:5.1.1+git20141128.0009
 _ZN8KWayland6Server16PointerInterface7Private11s_interfaceE@Base 4:5.1.1+git20141128.0009
 _ZN8KWayland6Server16PointerInterface7Private15endPinchGestureEj@Base 4:5.35.0
 _ZN8KWayland6Server16PointerInterface7Private15endSwipeGestureEj@Base 4:5.35.0
 _ZN8KWayland6Server16PointerInterface7Private17setCursorCallbackEP9wl_clientP11wl_resourcejS6_ii@Base 4:5.1.1+git20141128.0009
 _ZN8KWayland6Server16PointerInterface7Private17startPinchGestureEjj@Base 4:5.35.0
 _ZN8KWayland6Server16PointerInterface7Private17startSwipeGestureEjj@Base 4:5.35.0
 _ZN8KWayland6Server16PointerInterface7Private18cancelPinchGestureEj@Base 4:5.35.0
 _ZN8KWayland6Server16PointerInterface7Private18cancelSwipeGestureEj@Base 4:5.35.0
 _ZN8KWayland6Server16PointerInterface7Private18updatePinchGestureERK6QSizeFdd@Base 4:5.35.0
 _ZN8KWayland6Server16PointerInterface7Private18updateSwipeGestureERK6QSizeF@Base 4:5.35.0
 _ZN8KWayland6Server16PointerInterface7Private20registerPinchGestureEPNS0_28PointerPinchGestureInterfaceE@Base 4:5.35.0
 _ZN8KWayland6Server16PointerInterface7Private20registerSwipeGestureEPNS0_28PointerSwipeGestureInterfaceE@Base 4:5.35.0
 _ZN8KWayland6Server16PointerInterface7Private23registerRelativePointerEPNS0_24RelativePointerInterfaceE@Base 4:5.28.0
 _ZN8KWayland6Server16PointerInterface7Private9sendEnterEPNS0_16SurfaceInterfaceERK7QPointFj@Base 4:5.22.0
 _ZN8KWayland6Server16PointerInterface7Private9sendFrameEv@Base 4:5.45.0
 _ZN8KWayland6Server16PointerInterface7Private9sendLeaveEPNS0_16SurfaceInterfaceEj@Base 4:5.22.0
 _ZN8KWayland6Server16PointerInterface7Private9setCursorEjPNS0_16SurfaceInterfaceERK6QPoint@Base 4:5.2.1+git20150228.0043+15.04
 _ZN8KWayland6Server16PointerInterface7PrivateC1EPNS0_13SeatInterfaceEP11wl_resourcePS1_@Base 4:5.1.1+git20141128.0009
 _ZN8KWayland6Server16PointerInterface7PrivateC2EPNS0_13SeatInterfaceEP11wl_resourcePS1_@Base 4:5.1.1+git20141128.0009
 _ZN8KWayland6Server16PointerInterfaceC1EPNS0_13SeatInterfaceEP11wl_resource@Base 4:5.1.1+git20141128.0009
 _ZN8KWayland6Server16PointerInterfaceC2EPNS0_13SeatInterfaceEP11wl_resource@Base 4:5.1.1+git20141128.0009
 _ZN8KWayland6Server16PointerInterfaceD0Ev@Base 4:5.1.1+git20141128.0009
 _ZN8KWayland6Server16PointerInterfaceD1Ev@Base 4:5.1.1+git20141128.0009
 _ZN8KWayland6Server16PointerInterfaceD2Ev@Base 4:5.1.1+git20141128.0009
 _ZN8KWayland6Server16SurfaceInterface10setOutputsERK7QVectorIPNS0_15OutputInterfaceEE@Base 4:5.27.0
 _ZN8KWayland6Server16SurfaceInterface11blurChangedEv@Base 4:5.5.0
 _ZN8KWayland6Server16SurfaceInterface11qt_metacallEN11QMetaObject4CallEiPPv@Base 4:5.1.1+git20141128.0009
 _ZN8KWayland6Server16SurfaceInterface11qt_metacastEPKc@Base 4:5.1.1+git20141128.0009
 _ZN8KWayland6Server16SurfaceInterface11sizeChangedEv@Base 4:5.2.1+git20150304.0028+15.04
 _ZN8KWayland6Server16SurfaceInterface12inputChangedERK7QRegion@Base 4:5.1.1+git20141128.0009
 _ZN8KWayland6Server16SurfaceInterface12scaleChangedEi@Base 4:5.1.1+git20141128.0009
 _ZN8KWayland6Server16SurfaceInterface12setDataProxyEPS1_@Base 4:5.61.0
 _ZN8KWayland6Server16SurfaceInterface13frameRenderedEj@Base 4:5.1.1+git20141128.0009
 _ZN8KWayland6Server16SurfaceInterface13opaqueChangedERK7QRegion@Base 4:5.1.1+git20141128.0009
 _ZN8KWayland6Server16SurfaceInterface13shadowChangedEv@Base 4:5.4.0
 _ZN8KWayland6Server16SurfaceInterface14inputSurfaceAtERK7QPointF@Base 4:5.52.0
 _ZN8KWayland6Server16SurfaceInterface15contrastChangedEv@Base 4:5.5.0
 _ZN8KWayland6Server16SurfaceInterface16staticMetaObjectE@Base 4:5.1.1+git20141128.0009
 _ZN8KWayland6Server16SurfaceInterface16transformChangedENS0_15OutputInterface9TransformE@Base 4:5.1.1+git20141128.0009
 _ZN8KWayland6Server16SurfaceInterface18resetTrackedDamageEv@Base 4:5.22.0
 _ZN8KWayland6Server16SurfaceInterface19inhibitsIdleChangedEv@Base 4:5.41.0
 _ZN8KWayland6Server16SurfaceInterface20childSubSurfaceAddedEPNS0_19SubSurfaceInterfaceE@Base 4:5.70.0
 _ZN8KWayland6Server16SurfaceInterface21subSurfaceTreeChangedEv@Base 4:5.22.0
 _ZN8KWayland6Server16SurfaceInterface22childSubSurfaceRemovedEPNS0_19SubSurfaceInterfaceE@Base 4:5.70.0
 _ZN8KWayland6Server16SurfaceInterface22slideOnShowHideChangedEv@Base 4:5.5.0
 _ZN8KWayland6Server16SurfaceInterface25pointerConstraintsChangedEv@Base 4:5.35.0
 _ZN8KWayland6Server16SurfaceInterface3getEP11wl_resource@Base 4:5.1.1+git20141128.0009
 _ZN8KWayland6Server16SurfaceInterface3getEjPKNS0_16ClientConnectionE@Base 4:5.2.2+git20150407.0736
 _ZN8KWayland6Server16SurfaceInterface6bufferEv@Base 4:5.1.1+git20141128.0009
 _ZN8KWayland6Server16SurfaceInterface7Private10lowerChildE8QPointerINS0_19SubSurfaceInterfaceEEPS1_@Base 4:5.1.1+git20141128.0009
 _ZN8KWayland6Server16SurfaceInterface7Private10raiseChildE8QPointerINS0_19SubSurfaceInterfaceEEPS1_@Base 4:5.1.1+git20141128.0009
 _ZN8KWayland6Server16SurfaceInterface7Private10swapStatesEPNS2_5StateES4_b@Base 4:5.22.0
 _ZN8KWayland6Server16SurfaceInterface7Private11removeChildE8QPointerINS0_19SubSurfaceInterfaceEE@Base 4:5.1.1+git20141128.0009
 _ZN8KWayland6Server16SurfaceInterface7Private11s_interfaceE@Base 4:5.1.1+git20141128.0009
 _ZN8KWayland6Server16SurfaceInterface7Private11setContrastERK8QPointerINS0_17ContrastInterfaceEE@Base 4:5.5.0
 _ZN8KWayland6Server16SurfaceInterface7Private12attachBufferEP11wl_resourceRK6QPoint@Base 4:5.1.1+git20141128.0009
 _ZN8KWayland6Server16SurfaceInterface7Private12damageBufferERK5QRect@Base 4:5.61.0
 _ZN8KWayland6Server16SurfaceInterface7Private12setTransformENS0_15OutputInterface9TransformE@Base 4:5.1.1+git20141128.0009
 _ZN8KWayland6Server16SurfaceInterface7Private13frameCallbackEP9wl_clientP11wl_resourcej@Base 4:5.43.0-1~
 _ZN8KWayland6Server16SurfaceInterface7Private14attachCallbackEP9wl_clientP11wl_resourceS6_ii@Base 4:5.1.1+git20141128.0009
 _ZN8KWayland6Server16SurfaceInterface7Private14commitCallbackEP9wl_clientP11wl_resource@Base 4:5.1.1+git20141128.0009
 _ZN8KWayland6Server16SurfaceInterface7Private14damageCallbackEP9wl_clientP11wl_resourceiiii@Base 4:5.1.1+git20141128.0009
 _ZN8KWayland6Server16SurfaceInterface7Private16addFrameCallbackEj@Base 4:5.1.1+git20141128.0009
 _ZN8KWayland6Server16SurfaceInterface7Private16commitSubSurfaceEv@Base 4:5.22.0
 _ZN8KWayland6Server16SurfaceInterface7Private19bufferScaleCallbackEP9wl_clientP11wl_resourcei@Base 4:5.1.1+git20141128.0009
 _ZN8KWayland6Server16SurfaceInterface7Private19inputRegionCallbackEP9wl_clientP11wl_resourceS6_@Base 4:5.1.1+git20141128.0009
 _ZN8KWayland6Server16SurfaceInterface7Private20damageBufferCallbackEP9wl_clientP11wl_resourceiiii@Base 4:5.61.0
 _ZN8KWayland6Server16SurfaceInterface7Private20destroyFrameCallbackEP11wl_resource@Base 4:5.1.1+git20141128.0009
 _ZN8KWayland6Server16SurfaceInterface7Private20installIdleInhibitorEPNS0_22IdleInhibitorInterfaceE@Base 4:5.41.0
 _ZN8KWayland6Server16SurfaceInterface7Private20opaqueRegionCallbackEP9wl_clientP11wl_resourceS6_@Base 4:5.1.1+git20141128.0009
 _ZN8KWayland6Server16SurfaceInterface7Private23bufferTransformCallbackEP9wl_clientP11wl_resourcei@Base 4:5.1.1+git20141128.0009
 _ZN8KWayland6Server16SurfaceInterface7Private24installPointerConstraintEPNS0_22LockedPointerInterfaceE@Base 4:5.35.0
 _ZN8KWayland6Server16SurfaceInterface7Private24installPointerConstraintEPNS0_24ConfinedPointerInterfaceE@Base 4:5.35.0
 _ZN8KWayland6Server16SurfaceInterface7Private6commitEv@Base 4:5.1.1+git20141128.0009
 _ZN8KWayland6Server16SurfaceInterface7Private6damageERK5QRect@Base 4:5.1.1+git20141128.0009
 _ZN8KWayland6Server16SurfaceInterface7Private7destroyEv@Base 4:5.1.1+git20141128.0009
 _ZN8KWayland6Server16SurfaceInterface7Private7setBlurERK8QPointerINS0_13BlurInterfaceEE@Base 4:5.5.0
 _ZN8KWayland6Server16SurfaceInterface7Private8addChildE8QPointerINS0_19SubSurfaceInterfaceEE@Base 4:5.1.1+git20141128.0009
 _ZN8KWayland6Server16SurfaceInterface7Private8setInputERK7QRegionb@Base 4:5.1.1+git20141128.0009
 _ZN8KWayland6Server16SurfaceInterface7Private8setScaleEi@Base 4:5.1.1+git20141128.0009
 _ZN8KWayland6Server16SurfaceInterface7Private8setSlideERK8QPointerINS0_14SlideInterfaceEE@Base 4:5.5.0
 _ZN8KWayland6Server16SurfaceInterface7Private9setOpaqueERK7QRegion@Base 4:5.1.1+git20141128.0009
 _ZN8KWayland6Server16SurfaceInterface7Private9setShadowERK8QPointerINS0_15ShadowInterfaceEE@Base 4:5.4.0
 _ZN8KWayland6Server16SurfaceInterface7PrivateC1EPS1_PNS0_19CompositorInterfaceEP11wl_resource@Base 4:5.1.1+git20141128.0009
 _ZN8KWayland6Server16SurfaceInterface7PrivateC2EPS1_PNS0_19CompositorInterfaceEP11wl_resource@Base 4:5.1.1+git20141128.0009
 _ZN8KWayland6Server16SurfaceInterface7PrivateD0Ev@Base 4:5.1.1+git20141128.0009
 _ZN8KWayland6Server16SurfaceInterface7PrivateD1Ev@Base 4:5.1.1+git20141128.0009
 _ZN8KWayland6Server16SurfaceInterface7PrivateD2Ev@Base 4:5.1.1+git20141128.0009
 _ZN8KWayland6Server16SurfaceInterface7damagedERK7QRegion@Base 4:5.1.1+git20141128.0009
 _ZN8KWayland6Server16SurfaceInterface8unmappedEv@Base 4:5.1.1+git20141128.0009
 _ZN8KWayland6Server16SurfaceInterface9committedEv@Base 4:5.61.0
 _ZN8KWayland6Server16SurfaceInterface9surfaceAtERK7QPointF@Base 4:5.22.0
 _ZN8KWayland6Server16SurfaceInterfaceC1EPNS0_19CompositorInterfaceEP11wl_resource@Base 4:5.1.1+git20141128.0009
 _ZN8KWayland6Server16SurfaceInterfaceC2EPNS0_19CompositorInterfaceEP11wl_resource@Base 4:5.1.1+git20141128.0009
 _ZN8KWayland6Server16SurfaceInterfaceD0Ev@Base 4:5.1.1+git20141128.0009
 _ZN8KWayland6Server16SurfaceInterfaceD1Ev@Base 4:5.1.1+git20141128.0009
 _ZN8KWayland6Server16SurfaceInterfaceD2Ev@Base 4:5.1.1+git20141128.0009
 _ZN8KWayland6Server17ContrastInterface11qt_metacallEN11QMetaObject4CallEiPPv@Base 4:5.5.0
 _ZN8KWayland6Server17ContrastInterface11qt_metacastEPKc@Base 4:5.5.0
 _ZN8KWayland6Server17ContrastInterface16staticMetaObjectE@Base 4:5.5.0
 _ZN8KWayland6Server17ContrastInterface7Private11s_interfaceE@Base 4:5.5.0
 _ZN8KWayland6Server17ContrastInterface7Private14commitCallbackEP9wl_clientP11wl_resource@Base 4:5.5.0
 _ZN8KWayland6Server17ContrastInterface7Private17setRegionCallbackEP9wl_clientP11wl_resourceS6_@Base 4:5.5.0
 _ZN8KWayland6Server17ContrastInterface7Private19setContrastCallbackEP9wl_clientP11wl_resourcei@Base 4:5.5.0
 _ZN8KWayland6Server17ContrastInterface7Private20setIntensityCallbackEP9wl_clientP11wl_resourcei@Base 4:5.5.0
 _ZN8KWayland6Server17ContrastInterface7Private21setSaturationCallbackEP9wl_clientP11wl_resourcei@Base 4:5.5.0
 _ZN8KWayland6Server17ContrastInterface7Private6commitEv@Base 4:5.5.0
 _ZN8KWayland6Server17ContrastInterface7PrivateC1EPS1_PNS0_24ContrastManagerInterfaceEP11wl_resource@Base 4:5.5.0
 _ZN8KWayland6Server17ContrastInterface7PrivateC2EPS1_PNS0_24ContrastManagerInterfaceEP11wl_resource@Base 4:5.5.0
 _ZN8KWayland6Server17ContrastInterface7PrivateD0Ev@Base 4:5.5.0
 _ZN8KWayland6Server17ContrastInterface7PrivateD1Ev@Base 4:5.5.0
 _ZN8KWayland6Server17ContrastInterface7PrivateD2Ev@Base 4:5.5.0
 _ZN8KWayland6Server17ContrastInterfaceC1EPNS0_24ContrastManagerInterfaceEP11wl_resource@Base 4:5.5.0
 _ZN8KWayland6Server17ContrastInterfaceC2EPNS0_24ContrastManagerInterfaceEP11wl_resource@Base 4:5.5.0
 _ZN8KWayland6Server17ContrastInterfaceD0Ev@Base 4:5.5.0
 _ZN8KWayland6Server17ContrastInterfaceD1Ev@Base 4:5.5.0
 _ZN8KWayland6Server17ContrastInterfaceD2Ev@Base 4:5.5.0
 _ZN8KWayland6Server17KeyStateInterface11qt_metacallEN11QMetaObject4CallEiPPv@Base 4:5.61.0
 _ZN8KWayland6Server17KeyStateInterface11qt_metacastEPKc@Base 4:5.61.0
 _ZN8KWayland6Server17KeyStateInterface16staticMetaObjectE@Base 4:5.61.0
 _ZN8KWayland6Server17KeyStateInterface7Private11s_interfaceE@Base 4:5.61.0
 _ZN8KWayland6Server17KeyStateInterface7Private9s_versionE@Base 4:5.61.0
 _ZN8KWayland6Server17KeyStateInterface8setStateENS1_3KeyENS1_5StateE@Base 4:5.61.0
 _ZN8KWayland6Server17KeyStateInterfaceC1EPNS0_7DisplayEP7QObject@Base 4:5.61.0
 _ZN8KWayland6Server17KeyStateInterfaceC2EPNS0_7DisplayEP7QObject@Base 4:5.61.0
 _ZN8KWayland6Server17KeyStateInterfaceD0Ev@Base 4:5.61.0
 _ZN8KWayland6Server17KeyStateInterfaceD1Ev@Base 4:5.61.0
 _ZN8KWayland6Server17KeyStateInterfaceD2Ev@Base 4:5.61.0
 _ZN8KWayland6Server17KeyboardInterface10keyPressedEjj@Base 4:5.1.1+git20141128.0009
 _ZN8KWayland6Server17KeyboardInterface10repeatInfoEii@Base 4:5.5.0
 _ZN8KWayland6Server17KeyboardInterface11keyReleasedEjj@Base 4:5.1.1+git20141128.0009
 _ZN8KWayland6Server17KeyboardInterface11qt_metacallEN11QMetaObject4CallEiPPv@Base 4:5.1.1+git20141128.0009
 _ZN8KWayland6Server17KeyboardInterface11qt_metacastEPKc@Base 4:5.1.1+git20141128.0009
 _ZN8KWayland6Server17KeyboardInterface15updateModifiersEjjjjj@Base 4:5.1.1+git20141128.0009
 _ZN8KWayland6Server17KeyboardInterface16staticMetaObjectE@Base 4:5.1.1+git20141128.0009
 _ZN8KWayland6Server17KeyboardInterface17setFocusedSurfaceEPNS0_16SurfaceInterfaceEj@Base 4:5.1.1+git20141128.0009
 _ZN8KWayland6Server17KeyboardInterface7Private10sendKeymapEij@Base 4:5.1.1+git20141128.0009
 _ZN8KWayland6Server17KeyboardInterface7Private11s_interfaceE@Base 4:5.1.1+git20141128.0009
 _ZN8KWayland6Server17KeyboardInterface7Private13sendModifiersEjjjjj@Base 4:5.1.1+git20141128.0009
 _ZN8KWayland6Server17KeyboardInterface7Private13sendModifiersEv@Base 4:5.1.1+git20141128.0009
 _ZN8KWayland6Server17KeyboardInterface7Private17focusChildSurfaceERK8QPointerINS0_16SurfaceInterfaceEEj@Base 4:5.22.0
 _ZN8KWayland6Server17KeyboardInterface7Private9sendEnterEPNS0_16SurfaceInterfaceEj@Base 4:5.22.0
 _ZN8KWayland6Server17KeyboardInterface7Private9sendLeaveEPNS0_16SurfaceInterfaceEj@Base 4:5.22.0
 _ZN8KWayland6Server17KeyboardInterface7PrivateC1EPNS0_13SeatInterfaceEP11wl_resourcePS1_@Base 4:5.1.1+git20141128.0009
 _ZN8KWayland6Server17KeyboardInterface7PrivateC2EPNS0_13SeatInterfaceEP11wl_resourcePS1_@Base 4:5.1.1+git20141128.0009
 _ZN8KWayland6Server17KeyboardInterface9setKeymapERK10QByteArray@Base 4:5.69.0
 _ZN8KWayland6Server17KeyboardInterface9setKeymapEij@Base 4:5.1.1+git20141128.0009
 _ZN8KWayland6Server17KeyboardInterfaceC1EPNS0_13SeatInterfaceEP11wl_resource@Base 4:5.1.1+git20141128.0009
 _ZN8KWayland6Server17KeyboardInterfaceC2EPNS0_13SeatInterfaceEP11wl_resource@Base 4:5.1.1+git20141128.0009
 _ZN8KWayland6Server17KeyboardInterfaceD0Ev@Base 4:5.1.1+git20141128.0009
 _ZN8KWayland6Server17KeyboardInterfaceD1Ev@Base 4:5.1.1+git20141128.0009
 _ZN8KWayland6Server17KeyboardInterfaceD2Ev@Base 4:5.1.1+git20141128.0009
 _ZN8KWayland6Server17LinuxDmabufBufferC1Ev@Base 4:5.62.0
 _ZN8KWayland6Server17LinuxDmabufBufferC2Ev@Base 4:5.62.0
 _ZN8KWayland6Server17XdgShellInterface10getSurfaceEP11wl_resource@Base 4:5.25.0
 _ZN8KWayland6Server17XdgShellInterface11pingDelayedEj@Base 4:5.41.0
 _ZN8KWayland6Server17XdgShellInterface11pingTimeoutEj@Base 4:5.41.0
 _ZN8KWayland6Server17XdgShellInterface11qt_metacallEN11QMetaObject4CallEiPPv@Base 4:5.25.0
 _ZN8KWayland6Server17XdgShellInterface11qt_metacastEPKc@Base 4:5.25.0
 _ZN8KWayland6Server17XdgShellInterface12pongReceivedEj@Base 4:5.41.0
 _ZN8KWayland6Server17XdgShellInterface12popupCreatedEPNS0_22XdgShellPopupInterfaceEPNS0_13SeatInterfaceEj@Base 4:5.25.0
 _ZN8KWayland6Server17XdgShellInterface14surfaceCreatedEPNS0_24XdgShellSurfaceInterfaceE@Base 4:5.25.0
 _ZN8KWayland6Server17XdgShellInterface15xdgPopupCreatedEPNS0_22XdgShellPopupInterfaceE@Base 4:5.41.0
 _ZN8KWayland6Server17XdgShellInterface16staticMetaObjectE@Base 4:5.25.0
 _ZN8KWayland6Server17XdgShellInterface4pingEPNS0_24XdgShellSurfaceInterfaceE@Base 4:5.41.0
 _ZN8KWayland6Server17XdgShellInterface7Private10setupTimerEj@Base 4:5.41.0
 _ZN8KWayland6Server17XdgShellInterface7PrivateC1ENS0_24XdgShellInterfaceVersionEPS1_PNS0_7DisplayEPK12wl_interfacej@Base 4:5.25.0
 _ZN8KWayland6Server17XdgShellInterface7PrivateC2ENS0_24XdgShellInterfaceVersionEPS1_PNS0_7DisplayEPK12wl_interfacej@Base 4:5.25.0
 _ZN8KWayland6Server17XdgShellInterfaceC1EPNS1_7PrivateEP7QObject@Base 4:5.25.0
 _ZN8KWayland6Server17XdgShellInterfaceC2EPNS1_7PrivateEP7QObject@Base 4:5.25.0
 _ZN8KWayland6Server17XdgShellInterfaceD0Ev@Base 4:5.25.0
 _ZN8KWayland6Server17XdgShellInterfaceD1Ev@Base 4:5.25.0
 _ZN8KWayland6Server17XdgShellInterfaceD2Ev@Base 4:5.25.0
 _ZN8KWayland6Server18DataOfferInterface11qt_metacallEN11QMetaObject4CallEiPPv@Base 4:5.1.1+git20141128.0009
 _ZN8KWayland6Server18DataOfferInterface11qt_metacastEPKc@Base 4:5.1.1+git20141128.0009
 _ZN8KWayland6Server18DataOfferInterface13sendAllOffersEv@Base 4:5.1.1+git20141128.0009
 _ZN8KWayland6Server18DataOfferInterface16staticMetaObjectE@Base 4:5.1.1+git20141128.0009
 _ZN8KWayland6Server18DataOfferInterface25dragAndDropActionsChangedEv@Base 4:5.42.0
 _ZN8KWayland6Server18DataOfferInterface9dndActionENS0_26DataDeviceManagerInterface9DnDActionE@Base 4:5.42.0
 _ZN8KWayland6Server18DataOfferInterfaceC1EPNS0_19DataSourceInterfaceEPNS0_19DataDeviceInterfaceEP11wl_resource@Base 4:5.1.1+git20141128.0009
 _ZN8KWayland6Server18DataOfferInterfaceC2EPNS0_19DataSourceInterfaceEPNS0_19DataDeviceInterfaceEP11wl_resource@Base 4:5.1.1+git20141128.0009
 _ZN8KWayland6Server18DataOfferInterfaceD0Ev@Base 4:5.1.1+git20141128.0009
 _ZN8KWayland6Server18DataOfferInterfaceD1Ev@Base 4:5.1.1+git20141128.0009
 _ZN8KWayland6Server18DataOfferInterfaceD2Ev@Base 4:5.1.1+git20141128.0009
 _ZN8KWayland6Server18FakeInputInterface11qt_metacallEN11QMetaObject4CallEiPPv@Base 4:5.4.0
 _ZN8KWayland6Server18FakeInputInterface11qt_metacastEPKc@Base 4:5.4.0
 _ZN8KWayland6Server18FakeInputInterface13deviceCreatedEPNS0_15FakeInputDeviceE@Base 4:5.4.0
 _ZN8KWayland6Server18FakeInputInterface16staticMetaObjectE@Base 4:5.4.0
 _ZN8KWayland6Server18FakeInputInterface7Private11s_interfaceE@Base 4:5.4.0
 _ZN8KWayland6Server18FakeInputInterface7Private12axisCallbackEP9wl_clientP11wl_resourceji@Base 4:5.4.0
 _ZN8KWayland6Server18FakeInputInterface7Private14buttonCallbackEP9wl_clientP11wl_resourcejj@Base 4:5.4.0
 _ZN8KWayland6Server18FakeInputInterface7Private15touchUpCallbackEP9wl_clientP11wl_resourcej@Base 4:5.23.0
 _ZN8KWayland6Server18FakeInputInterface7Private17touchDownCallbackEP9wl_clientP11wl_resourcejii@Base 4:5.23.0
 _ZN8KWayland6Server18FakeInputInterface7Private18touchFrameCallbackEP9wl_clientP11wl_resource@Base 4:5.23.0
 _ZN8KWayland6Server18FakeInputInterface7Private19keyboardKeyCallbackEP9wl_clientP11wl_resourcejj@Base 4:5.69.0
 _ZN8KWayland6Server18FakeInputInterface7Private19touchCancelCallbackEP9wl_clientP11wl_resource@Base 4:5.23.0
 _ZN8KWayland6Server18FakeInputInterface7Private19touchMotionCallbackEP9wl_clientP11wl_resourcejii@Base 4:5.23.0
 _ZN8KWayland6Server18FakeInputInterface7Private20authenticateCallbackEP9wl_clientP11wl_resourcePKcS8_@Base 4:5.4.0
 _ZN8KWayland6Server18FakeInputInterface7Private21pointerMotionCallbackEP9wl_clientP11wl_resourceii@Base 4:5.4.0
 _ZN8KWayland6Server18FakeInputInterface7Private29pointerMotionAbsoluteCallbackEP9wl_clientP11wl_resourceii@Base 4:5.61.0
 _ZN8KWayland6Server18FakeInputInterface7Private4bindEP9wl_clientjj@Base 4:5.4.0
 _ZN8KWayland6Server18FakeInputInterface7Private6deviceEP11wl_resource@Base 4:5.4.0
 _ZN8KWayland6Server18FakeInputInterface7Private6unbindEP11wl_resource@Base 4:5.4.0
 _ZN8KWayland6Server18FakeInputInterface7Private8touchIdsE@Base 4:5.23.0
 _ZN8KWayland6Server18FakeInputInterface7Private9s_versionE@Base 4:5.5.0
 _ZN8KWayland6Server18FakeInputInterface7PrivateC1EPS1_PNS0_7DisplayE@Base 4:5.4.0
 _ZN8KWayland6Server18FakeInputInterface7PrivateC2EPS1_PNS0_7DisplayE@Base 4:5.4.0
 _ZN8KWayland6Server18FakeInputInterfaceC1EPNS0_7DisplayEP7QObject@Base 4:5.4.0
 _ZN8KWayland6Server18FakeInputInterfaceC2EPNS0_7DisplayEP7QObject@Base 4:5.4.0
 _ZN8KWayland6Server18FakeInputInterfaceD0Ev@Base 4:5.4.0
 _ZN8KWayland6Server18FakeInputInterfaceD1Ev@Base 4:5.4.0
 _ZN8KWayland6Server18FakeInputInterfaceD2Ev@Base 4:5.4.0
 _ZN8KWayland6Server18TextInputInterface11qt_metacallEN11QMetaObject4CallEiPPv@Base 4:5.23.0
 _ZN8KWayland6Server18TextInputInterface11qt_metacastEPKc@Base 4:5.23.0
 _ZN8KWayland6Server18TextInputInterface11setLanguageERK10QByteArray@Base 4:5.23.0
 _ZN8KWayland6Server18TextInputInterface12requestResetEv@Base 4:5.23.0
 _ZN8KWayland6Server18TextInputInterface13keysymPressedEj6QFlagsIN2Qt16KeyboardModifierEE@Base 4:5.23.0
 _ZN8KWayland6Server18TextInputInterface14enabledChangedEv@Base 4:5.23.0
 _ZN8KWayland6Server18TextInputInterface14keysymReleasedEj6QFlagsIN2Qt16KeyboardModifierEE@Base 4:5.23.0
 _ZN8KWayland6Server18TextInputInterface16setPreEditCursorEi@Base 4:5.23.0
 _ZN8KWayland6Server18TextInputInterface16setTextDirectionEN2Qt15LayoutDirectionE@Base 4:5.23.0
 _ZN8KWayland6Server18TextInputInterface16staticMetaObjectE@Base 4:5.23.0
 _ZN8KWayland6Server18TextInputInterface17setCursorPositionEii@Base 4:5.23.0
 _ZN8KWayland6Server18TextInputInterface18contentTypeChangedEv@Base 4:5.23.0
 _ZN8KWayland6Server18TextInputInterface18setInputPanelStateEbRK5QRect@Base 4:5.23.0
 _ZN8KWayland6Server18TextInputInterface21deleteSurroundingTextEjj@Base 4:5.23.0
 _ZN8KWayland6Server18TextInputInterface21requestHideInputPanelEv@Base 4:5.23.0
 _ZN8KWayland6Server18TextInputInterface21requestShowInputPanelEv@Base 4:5.23.0
 _ZN8KWayland6Server18TextInputInterface22cursorRectangleChangedERK5QRect@Base 4:5.23.0
 _ZN8KWayland6Server18TextInputInterface22surroundingTextChangedEv@Base 4:5.23.0
 _ZN8KWayland6Server18TextInputInterface24preferredLanguageChangedERK10QByteArray@Base 4:5.23.0
 _ZN8KWayland6Server18TextInputInterface6commitERK10QByteArray@Base 4:5.23.0
 _ZN8KWayland6Server18TextInputInterface7Private22hideInputPanelCallbackEP9wl_clientP11wl_resource@Base 4:5.23.0
 _ZN8KWayland6Server18TextInputInterface7Private22setContentTypeCallbackEP9wl_clientP11wl_resourcejj@Base 4:5.23.0
 _ZN8KWayland6Server18TextInputInterface7Private22showInputPanelCallbackEP9wl_clientP11wl_resource@Base 4:5.23.0
 _ZN8KWayland6Server18TextInputInterface7Private26setCursorRectangleCallbackEP9wl_clientP11wl_resourceiiii@Base 4:5.23.0
 _ZN8KWayland6Server18TextInputInterface7Private26setSurroundingTextCallbackEP9wl_clientP11wl_resourcePKcii@Base 4:5.53.0
 _ZN8KWayland6Server18TextInputInterface7Private28setPreferredLanguageCallbackEP9wl_clientP11wl_resourcePKc@Base 4:5.23.0
 _ZN8KWayland6Server18TextInputInterface7PrivateC1EPS1_PNS0_6GlobalEP11wl_resourcePK12wl_interfacePKv@Base 4:5.23.0
 _ZN8KWayland6Server18TextInputInterface7PrivateC2EPS1_PNS0_6GlobalEP11wl_resourcePK12wl_interfacePKv@Base 4:5.23.0
 _ZN8KWayland6Server18TextInputInterface7PrivateD0Ev@Base 4:5.23.0
 _ZN8KWayland6Server18TextInputInterface7PrivateD1Ev@Base 4:5.23.0
 _ZN8KWayland6Server18TextInputInterface7PrivateD2Ev@Base 4:5.23.0
 _ZN8KWayland6Server18TextInputInterface7preEditERK10QByteArrayS4_@Base 4:5.23.0
 _ZN8KWayland6Server18TextInputInterfaceC1EPNS1_7PrivateEP7QObject@Base 4:5.23.0
 _ZN8KWayland6Server18TextInputInterfaceC2EPNS1_7PrivateEP7QObject@Base 4:5.23.0
 _ZN8KWayland6Server18TextInputInterfaceD0Ev@Base 4:5.23.0
 _ZN8KWayland6Server18TextInputInterfaceD1Ev@Base 4:5.23.0
 _ZN8KWayland6Server18TextInputInterfaceD2Ev@Base 4:5.23.0
 _ZN8KWayland6Server18XdgOutputInterface11qt_metacallEN11QMetaObject4CallEiPPv@Base 4:5.47.0
 _ZN8KWayland6Server18XdgOutputInterface11qt_metacastEPKc@Base 4:5.47.0
 _ZN8KWayland6Server18XdgOutputInterface14setDescriptionERK7QString@Base 4:5.69.0
 _ZN8KWayland6Server18XdgOutputInterface14setLogicalSizeERK5QSize@Base 4:5.47.0
 _ZN8KWayland6Server18XdgOutputInterface16staticMetaObjectE@Base 4:5.47.0
 _ZN8KWayland6Server18XdgOutputInterface18setLogicalPositionERK6QPoint@Base 4:5.47.0
 _ZN8KWayland6Server18XdgOutputInterface4doneEv@Base 4:5.47.0
 _ZN8KWayland6Server18XdgOutputInterface7Private17resourceConnectedEPNS0_20XdgOutputV1InterfaceE@Base 4:5.47.0
 _ZN8KWayland6Server18XdgOutputInterface7Private20resourceDisconnectedEPNS0_20XdgOutputV1InterfaceE@Base 4:5.47.0
 _ZN8KWayland6Server18XdgOutputInterface7setNameERK7QString@Base 4:5.69.0
 _ZN8KWayland6Server18XdgOutputInterfaceC1EP7QObject@Base 4:5.47.0
 _ZN8KWayland6Server18XdgOutputInterfaceC2EP7QObject@Base 4:5.47.0
 _ZN8KWayland6Server18XdgOutputInterfaceD0Ev@Base 4:5.47.0
 _ZN8KWayland6Server18XdgOutputInterfaceD1Ev@Base 4:5.47.0
 _ZN8KWayland6Server18XdgOutputInterfaceD2Ev@Base 4:5.47.0
 _ZN8KWayland6Server19CompositorInterface11qt_metacallEN11QMetaObject4CallEiPPv@Base 4:5.1.1+git20141128.0009
 _ZN8KWayland6Server19CompositorInterface11qt_metacastEPKc@Base 4:5.1.1+git20141128.0009
 _ZN8KWayland6Server19CompositorInterface13regionCreatedEPNS0_15RegionInterfaceE@Base 4:5.1.1+git20141128.0009
 _ZN8KWayland6Server19CompositorInterface14surfaceCreatedEPNS0_16SurfaceInterfaceE@Base 4:5.1.1+git20141128.0009
 _ZN8KWayland6Server19CompositorInterface16staticMetaObjectE@Base 4:5.1.1+git20141128.0009
 _ZN8KWayland6Server19CompositorInterface7Private11s_interfaceE@Base 4:5.1.1+git20141128.0009
 _ZN8KWayland6Server19CompositorInterface7Private12createRegionEP9wl_clientP11wl_resourcej@Base 4:5.1.1+git20141128.0009
 _ZN8KWayland6Server19CompositorInterface7Private13createSurfaceEP9wl_clientP11wl_resourcej@Base 4:5.1.1+git20141128.0009
 _ZN8KWayland6Server19CompositorInterface7Private20createRegionCallbackEP9wl_clientP11wl_resourcej@Base 4:5.1.1+git20141128.0009
 _ZN8KWayland6Server19CompositorInterface7Private21createSurfaceCallbackEP9wl_clientP11wl_resourcej@Base 4:5.1.1+git20141128.0009
 _ZN8KWayland6Server19CompositorInterface7Private4bindEP9wl_clientjj@Base 4:5.1.1+git20141128.0009
 _ZN8KWayland6Server19CompositorInterface7Private6unbindEP11wl_resource@Base 4:5.1.1+git20141128.0009
 _ZN8KWayland6Server19CompositorInterface7Private9s_versionE@Base 4:5.5.0
 _ZN8KWayland6Server19CompositorInterface7PrivateC1EPS1_PNS0_7DisplayE@Base 4:5.1.1+git20141128.0009
 _ZN8KWayland6Server19CompositorInterface7PrivateC2EPS1_PNS0_7DisplayE@Base 4:5.1.1+git20141128.0009
 _ZN8KWayland6Server19CompositorInterfaceC1EPNS0_7DisplayEP7QObject@Base 4:5.1.1+git20141128.0009
 _ZN8KWayland6Server19CompositorInterfaceC2EPNS0_7DisplayEP7QObject@Base 4:5.1.1+git20141128.0009
 _ZN8KWayland6Server19CompositorInterfaceD0Ev@Base 4:5.1.1+git20141128.0009
 _ZN8KWayland6Server19CompositorInterfaceD1Ev@Base 4:5.1.1+git20141128.0009
 _ZN8KWayland6Server19CompositorInterfaceD2Ev@Base 4:5.1.1+git20141128.0009
 _ZN8KWayland6Server19DataDeviceInterface11dragStartedEv@Base 4:5.1.1+git20141128.0009
 _ZN8KWayland6Server19DataDeviceInterface11qt_metacallEN11QMetaObject4CallEiPPv@Base 4:5.1.1+git20141128.0009
 _ZN8KWayland6Server19DataDeviceInterface11qt_metacastEPKc@Base 4:5.1.1+git20141128.0009
 _ZN8KWayland6Server19DataDeviceInterface11updateProxyEPNS0_16SurfaceInterfaceE@Base 4:5.61.0
 _ZN8KWayland6Server19DataDeviceInterface13sendSelectionEPS1_@Base 4:5.1.1+git20141128.0009
 _ZN8KWayland6Server19DataDeviceInterface16selectionChangedEPNS0_19DataSourceInterfaceE@Base 4:5.1.1+git20141128.0009
 _ZN8KWayland6Server19DataDeviceInterface16selectionClearedEv@Base 4:5.1.1+git20141128.0009
 _ZN8KWayland6Server19DataDeviceInterface16staticMetaObjectE@Base 4:5.1.1+git20141128.0009
 _ZN8KWayland6Server19DataDeviceInterface16updateDragTargetEPNS0_16SurfaceInterfaceEj@Base 4:5.6.2
 _ZN8KWayland6Server19DataDeviceInterface18sendClearSelectionEv@Base 4:5.1.1+git20141128.0009
 _ZN8KWayland6Server19DataDeviceInterface4dropEv@Base 4:5.6.2
 _ZN8KWayland6Server19DataDeviceInterface7Private11s_interfaceE@Base 4:5.1.1+git20141128.0009
 _ZN8KWayland6Server19DataDeviceInterface7Private12setSelectionEPNS0_19DataSourceInterfaceE@Base 4:5.1.1+git20141128.0009
 _ZN8KWayland6Server19DataDeviceInterface7Private15createDataOfferEPNS0_19DataSourceInterfaceE@Base 4:5.1.1+git20141128.0009
 _ZN8KWayland6Server19DataDeviceInterface7Private17startDragCallbackEP9wl_clientP11wl_resourceS6_S6_S6_j@Base 4:5.1.1+git20141128.0009
 _ZN8KWayland6Server19DataDeviceInterface7Private20setSelectionCallbackEP9wl_clientP11wl_resourceS6_j@Base 4:5.1.1+git20141128.0009
 _ZN8KWayland6Server19DataDeviceInterface7Private9startDragEPNS0_19DataSourceInterfaceEPNS0_16SurfaceInterfaceES6_j@Base 4:5.6.2
 _ZN8KWayland6Server19DataDeviceInterface7PrivateC1EPNS0_13SeatInterfaceEPS1_PNS0_26DataDeviceManagerInterfaceEP11wl_resource@Base 4:5.1.1+git20141128.0009
 _ZN8KWayland6Server19DataDeviceInterface7PrivateC2EPNS0_13SeatInterfaceEPS1_PNS0_26DataDeviceManagerInterfaceEP11wl_resource@Base 4:5.1.1+git20141128.0009
 _ZN8KWayland6Server19DataDeviceInterface7PrivateD0Ev@Base 4:5.1.1+git20141128.0009
 _ZN8KWayland6Server19DataDeviceInterface7PrivateD1Ev@Base 4:5.1.1+git20141128.0009
 _ZN8KWayland6Server19DataDeviceInterface7PrivateD2Ev@Base 4:5.1.1+git20141128.0009
 _ZN8KWayland6Server19DataDeviceInterfaceC1EPNS0_13SeatInterfaceEPNS0_26DataDeviceManagerInterfaceEP11wl_resource@Base 4:5.1.1+git20141128.0009
 _ZN8KWayland6Server19DataDeviceInterfaceC2EPNS0_13SeatInterfaceEPNS0_26DataDeviceManagerInterfaceEP11wl_resource@Base 4:5.1.1+git20141128.0009
 _ZN8KWayland6Server19DataDeviceInterfaceD0Ev@Base 4:5.1.1+git20141128.0009
 _ZN8KWayland6Server19DataDeviceInterfaceD1Ev@Base 4:5.1.1+git20141128.0009
 _ZN8KWayland6Server19DataDeviceInterfaceD2Ev@Base 4:5.1.1+git20141128.0009
 _ZN8KWayland6Server19DataSourceInterface11dndFinishedEv@Base 4:5.42.0
 _ZN8KWayland6Server19DataSourceInterface11qt_metacallEN11QMetaObject4CallEiPPv@Base 4:5.1.1+git20141128.0009
 _ZN8KWayland6Server19DataSourceInterface11qt_metacastEPKc@Base 4:5.1.1+git20141128.0009
 _ZN8KWayland6Server19DataSourceInterface11requestDataERK7QStringi@Base 4:5.1.1+git20141128.0009
 _ZN8KWayland6Server19DataSourceInterface13dropPerformedEv@Base 4:5.42.0
 _ZN8KWayland6Server19DataSourceInterface15mimeTypeOfferedERK7QString@Base 4:5.1.1+git20141128.0009
 _ZN8KWayland6Server19DataSourceInterface16staticMetaObjectE@Base 4:5.1.1+git20141128.0009
 _ZN8KWayland6Server19DataSourceInterface34supportedDragAndDropActionsChangedEv@Base 4:5.42.0
 _ZN8KWayland6Server19DataSourceInterface3getEP11wl_resource@Base 4:5.1.1+git20141128.0009
 _ZN8KWayland6Server19DataSourceInterface6acceptERK7QString@Base 4:5.1.1+git20141128.0009
 _ZN8KWayland6Server19DataSourceInterface6cancelEv@Base 4:5.1.1+git20141128.0009
 _ZN8KWayland6Server19DataSourceInterface7Private11s_interfaceE@Base 4:5.1.1+git20141128.0009
 _ZN8KWayland6Server19DataSourceInterface7Private13offerCallbackEP9wl_clientP11wl_resourcePKc@Base 4:5.1.1+git20141128.0009
 _ZN8KWayland6Server19DataSourceInterface7Private18setActionsCallbackEP9wl_clientP11wl_resourcej@Base 4:5.42.0
 _ZN8KWayland6Server19DataSourceInterface7Private5offerERK7QString@Base 4:5.1.1+git20141128.0009
 _ZN8KWayland6Server19DataSourceInterface7PrivateC1EPS1_PNS0_26DataDeviceManagerInterfaceEP11wl_resource@Base 4:5.1.1+git20141128.0009
 _ZN8KWayland6Server19DataSourceInterface7PrivateC2EPS1_PNS0_26DataDeviceManagerInterfaceEP11wl_resource@Base 4:5.1.1+git20141128.0009
 _ZN8KWayland6Server19DataSourceInterface7PrivateD0Ev@Base 4:5.1.1+git20141128.0009
 _ZN8KWayland6Server19DataSourceInterface7PrivateD1Ev@Base 4:5.1.1+git20141128.0009
 _ZN8KWayland6Server19DataSourceInterface7PrivateD2Ev@Base 4:5.1.1+git20141128.0009
 _ZN8KWayland6Server19DataSourceInterface9dndActionENS0_26DataDeviceManagerInterface9DnDActionE@Base 4:5.42.0
 _ZN8KWayland6Server19DataSourceInterfaceC1EPNS0_26DataDeviceManagerInterfaceEP11wl_resource@Base 4:5.1.1+git20141128.0009
 _ZN8KWayland6Server19DataSourceInterfaceC2EPNS0_26DataDeviceManagerInterfaceEP11wl_resource@Base 4:5.1.1+git20141128.0009
 _ZN8KWayland6Server19DataSourceInterfaceD0Ev@Base 4:5.1.1+git20141128.0009
 _ZN8KWayland6Server19DataSourceInterfaceD1Ev@Base 4:5.1.1+git20141128.0009
 _ZN8KWayland6Server19DataSourceInterfaceD2Ev@Base 4:5.1.1+git20141128.0009
 _ZN8KWayland6Server19SubSurfaceInterface11modeChangedENS1_4ModeE@Base 4:5.1.1+git20141128.0009
 _ZN8KWayland6Server19SubSurfaceInterface11qt_metacallEN11QMetaObject4CallEiPPv@Base 4:5.1.1+git20141128.0009
 _ZN8KWayland6Server19SubSurfaceInterface11qt_metacastEPKc@Base 4:5.1.1+git20141128.0009
 _ZN8KWayland6Server19SubSurfaceInterface13parentSurfaceEv@Base 4:5.1.1+git20141128.0009
 _ZN8KWayland6Server19SubSurfaceInterface15positionChangedERK6QPoint@Base 4:5.1.1+git20141128.0009
 _ZN8KWayland6Server19SubSurfaceInterface16staticMetaObjectE@Base 4:5.1.1+git20141128.0009
 _ZN8KWayland6Server19SubSurfaceInterface7Private10placeAboveEPNS0_16SurfaceInterfaceE@Base 4:5.1.1+git20141128.0009
 _ZN8KWayland6Server19SubSurfaceInterface7Private10placeBelowEPNS0_16SurfaceInterfaceE@Base 4:5.1.1+git20141128.0009
 _ZN8KWayland6Server19SubSurfaceInterface7Private11s_interfaceE@Base 4:5.1.1+git20141128.0009
 _ZN8KWayland6Server19SubSurfaceInterface7Private11setPositionERK6QPoint@Base 4:5.1.1+git20141128.0009
 _ZN8KWayland6Server19SubSurfaceInterface7Private15setSyncCallbackEP9wl_clientP11wl_resource@Base 4:5.1.1+git20141128.0009
 _ZN8KWayland6Server19SubSurfaceInterface7Private17setDeSyncCallbackEP9wl_clientP11wl_resource@Base 4:5.1.1+git20141128.0009
 _ZN8KWayland6Server19SubSurfaceInterface7Private18placeAboveCallbackEP9wl_clientP11wl_resourceS6_@Base 4:5.1.1+git20141128.0009
 _ZN8KWayland6Server19SubSurfaceInterface7Private18placeBelowCallbackEP9wl_clientP11wl_resourceS6_@Base 4:5.1.1+git20141128.0009
 _ZN8KWayland6Server19SubSurfaceInterface7Private19setPositionCallbackEP9wl_clientP11wl_resourceii@Base 4:5.1.1+git20141128.0009
 _ZN8KWayland6Server19SubSurfaceInterface7Private6commitEv@Base 4:5.1.1+git20141128.0009
 _ZN8KWayland6Server19SubSurfaceInterface7Private6createEPNS0_16ClientConnectionEjjPNS0_16SurfaceInterfaceES6_@Base 4:5.1.1+git20141128.0009
 _ZN8KWayland6Server19SubSurfaceInterface7Private7setModeENS1_4ModeE@Base 4:5.1.1+git20141128.0009
 _ZN8KWayland6Server19SubSurfaceInterface7PrivateC1EPS1_PNS0_22SubCompositorInterfaceEP11wl_resource@Base 4:5.1.1+git20141128.0009
 _ZN8KWayland6Server19SubSurfaceInterface7PrivateC2EPS1_PNS0_22SubCompositorInterfaceEP11wl_resource@Base 4:5.1.1+git20141128.0009
 _ZN8KWayland6Server19SubSurfaceInterface7PrivateD0Ev@Base 4:5.1.1+git20141128.0009
 _ZN8KWayland6Server19SubSurfaceInterface7PrivateD1Ev@Base 4:5.1.1+git20141128.0009
 _ZN8KWayland6Server19SubSurfaceInterface7PrivateD2Ev@Base 4:5.1.1+git20141128.0009
 _ZN8KWayland6Server19SubSurfaceInterface7surfaceEv@Base 4:5.1.1+git20141128.0009
 _ZN8KWayland6Server19SubSurfaceInterfaceC1EPNS0_22SubCompositorInterfaceEP11wl_resource@Base 4:5.1.1+git20141128.0009
 _ZN8KWayland6Server19SubSurfaceInterfaceC2EPNS0_22SubCompositorInterfaceEP11wl_resource@Base 4:5.1.1+git20141128.0009
 _ZN8KWayland6Server19SubSurfaceInterfaceD0Ev@Base 4:5.1.1+git20141128.0009
 _ZN8KWayland6Server19SubSurfaceInterfaceD1Ev@Base 4:5.1.1+git20141128.0009
 _ZN8KWayland6Server19SubSurfaceInterfaceD2Ev@Base 4:5.1.1+git20141128.0009
 _ZN8KWayland6Server19TabletSeatInterface11qt_metacallEN11QMetaObject4CallEiPPv@Base 4:5.69.0
 _ZN8KWayland6Server19TabletSeatInterface11qt_metacastEPKc@Base 4:5.69.0
 _ZN8KWayland6Server19TabletSeatInterface12removeTabletERK7QString@Base 4:5.69.0
 _ZN8KWayland6Server19TabletSeatInterface16staticMetaObjectE@Base 4:5.69.0
 _ZN8KWayland6Server19TabletSeatInterface7addToolENS0_19TabletToolInterface4TypeEyyRK7QVectorINS2_10CapabilityEE@Base 4:5.69.0
 _ZN8KWayland6Server19TabletSeatInterface9addTabletEjjRK7QStringS4_RK11QStringList@Base 4:5.69.0
 _ZN8KWayland6Server19TabletSeatInterfaceC1EPNS0_7DisplayEP7QObject@Base 4:5.69.0
 _ZN8KWayland6Server19TabletSeatInterfaceC2EPNS0_7DisplayEP7QObject@Base 4:5.69.0
 _ZN8KWayland6Server19TabletSeatInterfaceD0Ev@Base 4:5.69.0
 _ZN8KWayland6Server19TabletSeatInterfaceD1Ev@Base 4:5.69.0
 _ZN8KWayland6Server19TabletSeatInterfaceD2Ev@Base 4:5.69.0
 _ZN8KWayland6Server19TabletToolInterface10sendButtonEjb@Base 4:5.69.0
 _ZN8KWayland6Server19TabletToolInterface10sendMotionERK7QPointF@Base 4:5.69.0
 _ZN8KWayland6Server19TabletToolInterface10sendSliderEi@Base 4:5.69.0
 _ZN8KWayland6Server19TabletToolInterface11qt_metacallEN11QMetaObject4CallEiPPv@Base 4:5.69.0
 _ZN8KWayland6Server19TabletToolInterface11qt_metacastEPKc@Base 4:5.69.0
 _ZN8KWayland6Server19TabletToolInterface11sendRemovedEv@Base 4:5.69.0
 _ZN8KWayland6Server19TabletToolInterface12sendDistanceEj@Base 4:5.69.0
 _ZN8KWayland6Server19TabletToolInterface12sendPressureEj@Base 4:5.69.0
 _ZN8KWayland6Server19TabletToolInterface12sendRotationEd@Base 4:5.69.0
 _ZN8KWayland6Server19TabletToolInterface15sendProximityInEPNS0_15TabletInterfaceE@Base 4:5.69.0
 _ZN8KWayland6Server19TabletToolInterface16sendProximityOutEv@Base 4:5.69.0
 _ZN8KWayland6Server19TabletToolInterface16staticMetaObjectE@Base 4:5.69.0
 _ZN8KWayland6Server19TabletToolInterface17setCurrentSurfaceEPNS0_16SurfaceInterfaceE@Base 4:5.69.0
 _ZN8KWayland6Server19TabletToolInterface6sendUpEv@Base 4:5.69.0
 _ZN8KWayland6Server19TabletToolInterface8sendDownEv@Base 4:5.69.0
 _ZN8KWayland6Server19TabletToolInterface8sendTiltEdd@Base 4:5.69.0
 _ZN8KWayland6Server19TabletToolInterface9sendFrameEj@Base 4:5.69.0
 _ZN8KWayland6Server19TabletToolInterface9sendWheelEii@Base 4:5.69.0
 _ZN8KWayland6Server19TabletToolInterfaceC1EPNS0_7DisplayENS1_4TypeEjjjjRK7QVectorINS1_10CapabilityEEP7QObject@Base 4:5.69.0
 _ZN8KWayland6Server19TabletToolInterfaceC2EPNS0_7DisplayENS1_4TypeEjjjjRK7QVectorINS1_10CapabilityEEP7QObject@Base 4:5.69.0
 _ZN8KWayland6Server19TabletToolInterfaceD0Ev@Base 4:5.69.0
 _ZN8KWayland6Server19TabletToolInterfaceD1Ev@Base 4:5.69.0
 _ZN8KWayland6Server19TabletToolInterfaceD2Ev@Base 4:5.69.0
 _ZN8KWayland6Server19XdgForeignInterface11qt_metacallEN11QMetaObject4CallEiPPv@Base 4:5.41.0
 _ZN8KWayland6Server19XdgForeignInterface11qt_metacastEPKc@Base 4:5.41.0
 _ZN8KWayland6Server19XdgForeignInterface12transientForEPNS0_16SurfaceInterfaceE@Base 4:5.41.0
 _ZN8KWayland6Server19XdgForeignInterface16staticMetaObjectE@Base 4:5.41.0
 _ZN8KWayland6Server19XdgForeignInterface16transientChangedEPNS0_16SurfaceInterfaceES3_@Base 4:5.41.0
 _ZN8KWayland6Server19XdgForeignInterface6createEv@Base 4:5.41.0
 _ZN8KWayland6Server19XdgForeignInterface7isValidEv@Base 4:5.41.0
 _ZN8KWayland6Server19XdgForeignInterfaceC1EPNS0_7DisplayEP7QObject@Base 4:5.41.0
 _ZN8KWayland6Server19XdgForeignInterfaceC2EPNS0_7DisplayEP7QObject@Base 4:5.41.0
 _ZN8KWayland6Server19XdgForeignInterfaceD0Ev@Base 4:5.41.0
 _ZN8KWayland6Server19XdgForeignInterfaceD1Ev@Base 4:5.41.0
 _ZN8KWayland6Server19XdgForeignInterfaceD2Ev@Base 4:5.41.0
 _ZN8KWayland6Server20BlurManagerInterface11qt_metacallEN11QMetaObject4CallEiPPv@Base 4:5.5.0
 _ZN8KWayland6Server20BlurManagerInterface11qt_metacastEPKc@Base 4:5.5.0
 _ZN8KWayland6Server20BlurManagerInterface16staticMetaObjectE@Base 4:5.5.0
 _ZN8KWayland6Server20BlurManagerInterface7Private10createBlurEP9wl_clientP11wl_resourcejS6_@Base 4:5.5.0
 _ZN8KWayland6Server20BlurManagerInterface7Private11s_interfaceE@Base 4:5.5.0
 _ZN8KWayland6Server20BlurManagerInterface7Private13unsetCallbackEP9wl_clientP11wl_resourceS6_@Base 4:5.5.0
 _ZN8KWayland6Server20BlurManagerInterface7Private14createCallbackEP9wl_clientP11wl_resourcejS6_@Base 4:5.5.0
 _ZN8KWayland6Server20BlurManagerInterface7Private4bindEP9wl_clientjj@Base 4:5.5.0
 _ZN8KWayland6Server20BlurManagerInterface7Private6unbindEP11wl_resource@Base 4:5.5.0
 _ZN8KWayland6Server20BlurManagerInterface7Private9s_versionE@Base 4:5.5.0
 _ZN8KWayland6Server20BlurManagerInterface7PrivateC1EPS1_PNS0_7DisplayE@Base 4:5.5.0
 _ZN8KWayland6Server20BlurManagerInterface7PrivateC2EPS1_PNS0_7DisplayE@Base 4:5.5.0
 _ZN8KWayland6Server20BlurManagerInterfaceC1EPNS0_7DisplayEP7QObject@Base 4:5.5.0
 _ZN8KWayland6Server20BlurManagerInterfaceC2EPNS0_7DisplayEP7QObject@Base 4:5.5.0
 _ZN8KWayland6Server20BlurManagerInterfaceD0Ev@Base 4:5.5.0
 _ZN8KWayland6Server20BlurManagerInterfaceD1Ev@Base 4:5.5.0
 _ZN8KWayland6Server20BlurManagerInterfaceD2Ev@Base 4:5.5.0
 _ZN8KWayland6Server20DpmsManagerInterface11qt_metacallEN11QMetaObject4CallEiPPv@Base 4:5.5.0
 _ZN8KWayland6Server20DpmsManagerInterface11qt_metacastEPKc@Base 4:5.5.0
 _ZN8KWayland6Server20DpmsManagerInterface16staticMetaObjectE@Base 4:5.5.0
 _ZN8KWayland6Server20DpmsManagerInterface7Private11s_interfaceE@Base 4:5.5.0
 _ZN8KWayland6Server20DpmsManagerInterface7Private15getDpmsCallbackEP9wl_clientP11wl_resourcejS6_@Base 4:5.5.0
 _ZN8KWayland6Server20DpmsManagerInterface7Private4bindEP9wl_clientjj@Base 4:5.5.0
 _ZN8KWayland6Server20DpmsManagerInterface7Private9s_versionE@Base 4:5.5.0
 _ZN8KWayland6Server20DpmsManagerInterface7PrivateC1EPS1_PNS0_7DisplayE@Base 4:5.5.0
 _ZN8KWayland6Server20DpmsManagerInterface7PrivateC2EPS1_PNS0_7DisplayE@Base 4:5.5.0
 _ZN8KWayland6Server20DpmsManagerInterfaceC1EPNS0_7DisplayEP7QObject@Base 4:5.5.0
 _ZN8KWayland6Server20DpmsManagerInterfaceC2EPNS0_7DisplayEP7QObject@Base 4:5.5.0
 _ZN8KWayland6Server20DpmsManagerInterfaceD0Ev@Base 4:5.5.0
 _ZN8KWayland6Server20DpmsManagerInterfaceD1Ev@Base 4:5.5.0
 _ZN8KWayland6Server20DpmsManagerInterfaceD2Ev@Base 4:5.5.0
 _ZN8KWayland6Server20IdleTimeoutInterface11qt_metacallEN11QMetaObject4CallEiPPv@Base 4:5.4.0
 _ZN8KWayland6Server20IdleTimeoutInterface11qt_metacastEPKc@Base 4:5.4.0
 _ZN8KWayland6Server20IdleTimeoutInterface16staticMetaObjectE@Base 4:5.4.0
 _ZN8KWayland6Server20IdleTimeoutInterface7Private11s_interfaceE@Base 4:5.4.0
 _ZN8KWayland6Server20IdleTimeoutInterface7Private20simulateUserActivityEv@Base 4:5.42.0
 _ZN8KWayland6Server20IdleTimeoutInterface7Private28simulateUserActivityCallbackEP9wl_clientP11wl_resource@Base 4:5.4.0
 _ZN8KWayland6Server20IdleTimeoutInterface7Private5setupEj@Base 4:5.4.0
 _ZN8KWayland6Server20IdleTimeoutInterface7PrivateC1EPNS0_13SeatInterfaceEPS1_PNS0_13IdleInterfaceEP11wl_resource@Base 4:5.4.0
 _ZN8KWayland6Server20IdleTimeoutInterface7PrivateC2EPNS0_13SeatInterfaceEPS1_PNS0_13IdleInterfaceEP11wl_resource@Base 4:5.4.0
 _ZN8KWayland6Server20IdleTimeoutInterface7PrivateD0Ev@Base 4:5.4.0
 _ZN8KWayland6Server20IdleTimeoutInterface7PrivateD1Ev@Base 4:5.4.0
 _ZN8KWayland6Server20IdleTimeoutInterface7PrivateD2Ev@Base 4:5.4.0
 _ZN8KWayland6Server20IdleTimeoutInterfaceC1EPNS0_13SeatInterfaceEPNS0_13IdleInterfaceEP11wl_resource@Base 4:5.4.0
 _ZN8KWayland6Server20IdleTimeoutInterfaceC2EPNS0_13SeatInterfaceEPNS0_13IdleInterfaceEP11wl_resource@Base 4:5.4.0
 _ZN8KWayland6Server20IdleTimeoutInterfaceD0Ev@Base 4:5.4.0
 _ZN8KWayland6Server20IdleTimeoutInterfaceD1Ev@Base 4:5.4.0
 _ZN8KWayland6Server20IdleTimeoutInterfaceD2Ev@Base 4:5.4.0
 _ZN8KWayland6Server20PlasmaShellInterface11qt_metacallEN11QMetaObject4CallEiPPv@Base 4:5.4.0
 _ZN8KWayland6Server20PlasmaShellInterface11qt_metacastEPKc@Base 4:5.4.0
 _ZN8KWayland6Server20PlasmaShellInterface14surfaceCreatedEPNS0_27PlasmaShellSurfaceInterfaceE@Base 4:5.4.0
 _ZN8KWayland6Server20PlasmaShellInterface16staticMetaObjectE@Base 4:5.4.0
 _ZN8KWayland6Server20PlasmaShellInterface7Private11s_interfaceE@Base 4:5.4.0
 _ZN8KWayland6Server20PlasmaShellInterface7Private13createSurfaceEP9wl_clientjjPNS0_16SurfaceInterfaceEP11wl_resource@Base 4:5.4.0
 _ZN8KWayland6Server20PlasmaShellInterface7Private21createSurfaceCallbackEP9wl_clientP11wl_resourcejS6_@Base 4:5.4.0
 _ZN8KWayland6Server20PlasmaShellInterface7Private4bindEP9wl_clientjj@Base 4:5.4.0
 _ZN8KWayland6Server20PlasmaShellInterface7Private9s_versionE@Base 4:5.5.0
 _ZN8KWayland6Server20PlasmaShellInterface7PrivateC1EPS1_PNS0_7DisplayE@Base 4:5.4.0
 _ZN8KWayland6Server20PlasmaShellInterface7PrivateC2EPS1_PNS0_7DisplayE@Base 4:5.4.0
 _ZN8KWayland6Server20PlasmaShellInterfaceC1EPNS0_7DisplayEP7QObject@Base 4:5.4.0
 _ZN8KWayland6Server20PlasmaShellInterfaceC2EPNS0_7DisplayEP7QObject@Base 4:5.4.0
 _ZN8KWayland6Server20PlasmaShellInterfaceD0Ev@Base 4:5.4.0
 _ZN8KWayland6Server20PlasmaShellInterfaceD1Ev@Base 4:5.4.0
 _ZN8KWayland6Server20PlasmaShellInterfaceD2Ev@Base 4:5.4.0
 _ZN8KWayland6Server21OutputDeviceInterface10setEnabledENS1_10EnablementE@Base 4:5.5.0
 _ZN8KWayland6Server21OutputDeviceInterface11edidChangedEv@Base 4:5.5.0
 _ZN8KWayland6Server21OutputDeviceInterface11qt_metacallEN11QMetaObject4CallEiPPv@Base 4:5.5.0
 _ZN8KWayland6Server21OutputDeviceInterface11qt_metacastEPKc@Base 4:5.5.0
 _ZN8KWayland6Server21OutputDeviceInterface11setSubPixelENS1_8SubPixelE@Base 4:5.5.0
 _ZN8KWayland6Server21OutputDeviceInterface11uuidChangedEv@Base 4:5.5.0
 _ZN8KWayland6Server21OutputDeviceInterface12modelChangedERK7QString@Base 4:5.5.0
 _ZN8KWayland6Server21OutputDeviceInterface12modesChangedEv@Base 4:5.5.0
 _ZN8KWayland6Server21OutputDeviceInterface12scaleChangedEi@Base 4:5.5.0
 _ZN8KWayland6Server21OutputDeviceInterface12setTransformENS1_9TransformE@Base 4:5.5.0
 _ZN8KWayland6Server21OutputDeviceInterface13eisaIdChangedERK7QString@Base 4:5.50.0
 _ZN8KWayland6Server21OutputDeviceInterface13scaleFChangedEd@Base 4:5.50.0
 _ZN8KWayland6Server21OutputDeviceInterface14enabledChangedEv@Base 4:5.5.0
 _ZN8KWayland6Server21OutputDeviceInterface14setColorCurvesERKNS1_11ColorCurvesE@Base 4:5.50.0
 _ZN8KWayland6Server21OutputDeviceInterface14setCurrentModeEi@Base 4:5.5.0
 _ZN8KWayland6Server21OutputDeviceInterface15setManufacturerERK7QString@Base 4:5.5.0
 _ZN8KWayland6Server21OutputDeviceInterface15setPhysicalSizeERK5QSize@Base 4:5.5.0
 _ZN8KWayland6Server21OutputDeviceInterface15setSerialNumberERK7QString@Base 4:5.50.0
 _ZN8KWayland6Server21OutputDeviceInterface15subPixelChangedENS1_8SubPixelE@Base 4:5.5.0
 _ZN8KWayland6Server21OutputDeviceInterface16pixelSizeChangedERK5QSize@Base 4:5.5.0
 _ZN8KWayland6Server21OutputDeviceInterface16staticMetaObjectE@Base 4:5.5.0
 _ZN8KWayland6Server21OutputDeviceInterface16transformChangedENS1_9TransformE@Base 4:5.5.0
 _ZN8KWayland6Server21OutputDeviceInterface17setGlobalPositionERK6QPoint@Base 4:5.5.0
 _ZN8KWayland6Server21OutputDeviceInterface18colorCurvesChangedENS1_11ColorCurvesE@Base 4:5.50.0
 _ZN8KWayland6Server21OutputDeviceInterface18currentModeChangedEv@Base 4:5.5.0
 _ZN8KWayland6Server21OutputDeviceInterface18refreshRateChangedEi@Base 4:5.5.0
 _ZN8KWayland6Server21OutputDeviceInterface19manufacturerChangedERK7QString@Base 4:5.5.0
 _ZN8KWayland6Server21OutputDeviceInterface19physicalSizeChangedERK5QSize@Base 4:5.5.0
 _ZN8KWayland6Server21OutputDeviceInterface19serialNumberChangedERK7QString@Base 4:5.50.0
 _ZN8KWayland6Server21OutputDeviceInterface21globalPositionChangedERK6QPoint@Base 4:5.5.0
 _ZN8KWayland6Server21OutputDeviceInterface3getEP11wl_resource@Base 4:5.5.0
 _ZN8KWayland6Server21OutputDeviceInterface7Private10s_privatesE@Base 4:5.5.0
 _ZN8KWayland6Server21OutputDeviceInterface7Private10sendEisaIdERKNS2_12ResourceDataE@Base 4:5.50.0
 _ZN8KWayland6Server21OutputDeviceInterface7Private10updateEdidEv@Base 4:5.50.0
 _ZN8KWayland6Server21OutputDeviceInterface7Private10updateUuidEv@Base 4:5.50.0
 _ZN8KWayland6Server21OutputDeviceInterface7Private11sendEnabledERKNS2_12ResourceDataE@Base 4:5.50.0
 _ZN8KWayland6Server21OutputDeviceInterface7Private11updateScaleEv@Base 4:5.5.0
 _ZN8KWayland6Server21OutputDeviceInterface7Private12sendGeometryEP11wl_resource@Base 4:5.5.0
 _ZN8KWayland6Server21OutputDeviceInterface7Private12updateEisaIdEv@Base 4:5.50.0
 _ZN8KWayland6Server21OutputDeviceInterface7Private13updateEnabledEv@Base 4:5.50.0
 _ZN8KWayland6Server21OutputDeviceInterface7Private14updateGeometryEv@Base 4:5.5.0
 _ZN8KWayland6Server21OutputDeviceInterface7Private15sendColorCurvesERKNS2_12ResourceDataE@Base 4:5.50.0
 _ZN8KWayland6Server21OutputDeviceInterface7Private16sendSerialNumberERKNS2_12ResourceDataE@Base 4:5.50.0
 _ZN8KWayland6Server21OutputDeviceInterface7Private17updateColorCurvesEv@Base 4:5.50.0
 _ZN8KWayland6Server21OutputDeviceInterface7Private3getEP11wl_resource@Base 4:5.5.0
 _ZN8KWayland6Server21OutputDeviceInterface7Private4bindEP9wl_clientjj@Base 4:5.5.0
 _ZN8KWayland6Server21OutputDeviceInterface7Private4castEP11wl_resource@Base 4:5.5.0
 _ZN8KWayland6Server21OutputDeviceInterface7Private6unbindEP11wl_resource@Base 4:5.5.0
 _ZN8KWayland6Server21OutputDeviceInterface7Private8sendDoneERKNS2_12ResourceDataE@Base 4:5.5.0
 _ZN8KWayland6Server21OutputDeviceInterface7Private8sendEdidERKNS2_12ResourceDataE@Base 4:5.50.0
 _ZN8KWayland6Server21OutputDeviceInterface7Private8sendModeEP11wl_resourceRKNS1_4ModeE@Base 4:5.5.0
 _ZN8KWayland6Server21OutputDeviceInterface7Private8sendUuidERKNS2_12ResourceDataE@Base 4:5.50.0
 _ZN8KWayland6Server21OutputDeviceInterface7Private9s_versionE@Base 4:5.5.0
 _ZN8KWayland6Server21OutputDeviceInterface7Private9sendScaleERKNS2_12ResourceDataE@Base 4:5.5.0
 _ZN8KWayland6Server21OutputDeviceInterface7PrivateC1EPS1_PNS0_7DisplayE@Base 4:5.5.0
 _ZN8KWayland6Server21OutputDeviceInterface7PrivateC2EPS1_PNS0_7DisplayE@Base 4:5.5.0
 _ZN8KWayland6Server21OutputDeviceInterface7PrivateD0Ev@Base 4:5.5.0
 _ZN8KWayland6Server21OutputDeviceInterface7PrivateD1Ev@Base 4:5.5.0
 _ZN8KWayland6Server21OutputDeviceInterface7PrivateD2Ev@Base 4:5.5.0
 _ZN8KWayland6Server21OutputDeviceInterface7addModeERNS1_4ModeE@Base 4:5.5.0
 _ZN8KWayland6Server21OutputDeviceInterface7setEdidERK10QByteArray@Base 4:5.5.0
 _ZN8KWayland6Server21OutputDeviceInterface7setUuidERK10QByteArray@Base 4:5.5.0
 _ZN8KWayland6Server21OutputDeviceInterface8setModelERK7QString@Base 4:5.5.0
 _ZN8KWayland6Server21OutputDeviceInterface8setScaleEi@Base 4:5.5.0
 _ZN8KWayland6Server21OutputDeviceInterface9setEisaIdERK7QString@Base 4:5.50.0
 _ZN8KWayland6Server21OutputDeviceInterface9setScaleFEd@Base 4:5.50.0
 _ZN8KWayland6Server21OutputDeviceInterfaceC1EPNS0_7DisplayEP7QObject@Base 4:5.5.0
 _ZN8KWayland6Server21OutputDeviceInterfaceC2EPNS0_7DisplayEP7QObject@Base 4:5.5.0
 _ZN8KWayland6Server21OutputDeviceInterfaceD0Ev@Base 4:5.5.0
 _ZN8KWayland6Server21OutputDeviceInterfaceD1Ev@Base 4:5.5.0
 _ZN8KWayland6Server21OutputDeviceInterfaceD2Ev@Base 4:5.5.0
 _ZN8KWayland6Server21PlasmaWindowInterface10setMovableEb@Base 4:5.22.0
 _ZN8KWayland6Server21PlasmaWindowInterface11qt_metacallEN11QMetaObject4CallEiPPv@Base 4:5.4.0
 _ZN8KWayland6Server21PlasmaWindowInterface11qt_metacastEPKc@Base 4:5.4.0
 _ZN8KWayland6Server21PlasmaWindowInterface11setGeometryERK5QRect@Base 4:5.25.0
 _ZN8KWayland6Server21PlasmaWindowInterface12setCloseableEb@Base 4:5.4.0
 _ZN8KWayland6Server21PlasmaWindowInterface12setKeepAboveEb@Base 4:5.4.0
 _ZN8KWayland6Server21PlasmaWindowInterface12setKeepBelowEb@Base 4:5.4.0
 _ZN8KWayland6Server21PlasmaWindowInterface12setMaximizedEb@Base 4:5.4.0
 _ZN8KWayland6Server21PlasmaWindowInterface12setMinimizedEb@Base 4:5.4.0
 _ZN8KWayland6Server21PlasmaWindowInterface12setResizableEb@Base 4:5.22.0
 _ZN8KWayland6Server21PlasmaWindowInterface12setShadeableEb@Base 4:5.22.0
 _ZN8KWayland6Server21PlasmaWindowInterface13moveRequestedEv@Base 4:5.22.0
 _ZN8KWayland6Server21PlasmaWindowInterface13setFullscreenEb@Base 4:5.4.0
 _ZN8KWayland6Server21PlasmaWindowInterface14closeRequestedEv@Base 4:5.4.0
 _ZN8KWayland6Server21PlasmaWindowInterface14setSkipTaskbarEb@Base 4:5.5.0
 _ZN8KWayland6Server21PlasmaWindowInterface15activeRequestedEb@Base 4:5.4.0
 _ZN8KWayland6Server21PlasmaWindowInterface15resizeRequestedEv@Base 4:5.22.0
 _ZN8KWayland6Server21PlasmaWindowInterface15setMaximizeableEb@Base 4:5.4.0
 _ZN8KWayland6Server21PlasmaWindowInterface15setMinimizeableEb@Base 4:5.4.0
 _ZN8KWayland6Server21PlasmaWindowInterface15setParentWindowEPS1_@Base 4:5.24.0
 _ZN8KWayland6Server21PlasmaWindowInterface15setSkipSwitcherEb@Base 4:5.47.0
 _ZN8KWayland6Server21PlasmaWindowInterface15shadedRequestedEb@Base 4:5.22.0
 _ZN8KWayland6Server21PlasmaWindowInterface16movableRequestedEb@Base 4:5.22.0
 _ZN8KWayland6Server21PlasmaWindowInterface16setOnAllDesktopsEb@Base 4:5.4.0
 _ZN8KWayland6Server21PlasmaWindowInterface16staticMetaObjectE@Base 4:5.4.0
 _ZN8KWayland6Server21PlasmaWindowInterface17setFullscreenableEb@Base 4:5.4.0
 _ZN8KWayland6Server21PlasmaWindowInterface17setThemedIconNameERK7QString@Base 4:5.4.0
 _ZN8KWayland6Server21PlasmaWindowInterface17setVirtualDesktopEj@Base 4:5.4.0
 _ZN8KWayland6Server21PlasmaWindowInterface18closeableRequestedEb@Base 4:5.4.0
 _ZN8KWayland6Server21PlasmaWindowInterface18keepAboveRequestedEb@Base 4:5.4.0
 _ZN8KWayland6Server21PlasmaWindowInterface18keepBelowRequestedEb@Base 4:5.4.0
 _ZN8KWayland6Server21PlasmaWindowInterface18maximizedRequestedEb@Base 4:5.4.0
 _ZN8KWayland6Server21PlasmaWindowInterface18minimizedRequestedEb@Base 4:5.4.0
 _ZN8KWayland6Server21PlasmaWindowInterface18resizableRequestedEb@Base 4:5.22.0
 _ZN8KWayland6Server21PlasmaWindowInterface18shadeableRequestedEb@Base 4:5.22.0
 _ZN8KWayland6Server21PlasmaWindowInterface19fullscreenRequestedEb@Base 4:5.4.0
 _ZN8KWayland6Server21PlasmaWindowInterface19setDemandsAttentionEb@Base 4:5.4.0
 _ZN8KWayland6Server21PlasmaWindowInterface20skipTaskbarRequestedEb@Base 4:5.5.0
 _ZN8KWayland6Server21PlasmaWindowInterface21maximizeableRequestedEb@Base 4:5.4.0
 _ZN8KWayland6Server21PlasmaWindowInterface21minimizeableRequestedEb@Base 4:5.4.0
 _ZN8KWayland6Server21PlasmaWindowInterface21skipSwitcherRequestedEb@Base 4:5.47.0
 _ZN8KWayland6Server21PlasmaWindowInterface23addPlasmaVirtualDesktopERK7QString@Base 4:5.52.0
 _ZN8KWayland6Server21PlasmaWindowInterface23fullscreenableRequestedEb@Base 4:5.4.0
 _ZN8KWayland6Server21PlasmaWindowInterface23setApplicationMenuPathsERK7QStringS4_@Base 4:5.69.0
 _ZN8KWayland6Server21PlasmaWindowInterface23virtualDesktopRequestedEj@Base 4:5.4.0
 _ZN8KWayland6Server21PlasmaWindowInterface25demandsAttentionRequestedEb@Base 4:5.4.0
 _ZN8KWayland6Server21PlasmaWindowInterface26minimizedGeometriesChangedEv@Base 4:5.5.0
 _ZN8KWayland6Server21PlasmaWindowInterface26removePlasmaVirtualDesktopERK7QString@Base 4:5.52.0
 _ZN8KWayland6Server21PlasmaWindowInterface27setVirtualDesktopChangeableEb@Base 4:5.22.0
 _ZN8KWayland6Server21PlasmaWindowInterface33virtualDesktopChangeableRequestedEb@Base 4:5.22.0
 _ZN8KWayland6Server21PlasmaWindowInterface34enterPlasmaVirtualDesktopRequestedERK7QString@Base 4:5.52.0
 _ZN8KWayland6Server21PlasmaWindowInterface34leavePlasmaVirtualDesktopRequestedERK7QString@Base 4:5.52.0
 _ZN8KWayland6Server21PlasmaWindowInterface37enterNewPlasmaVirtualDesktopRequestedEv@Base 4:5.52.0
 _ZN8KWayland6Server21PlasmaWindowInterface5unmapEv@Base 4:5.4.0
 _ZN8KWayland6Server21PlasmaWindowInterface6setPidEj@Base 4:5.35.0
 _ZN8KWayland6Server21PlasmaWindowInterface7Private11s_interfaceE@Base 4:5.4.0
 _ZN8KWayland6Server21PlasmaWindowInterface7Private11setGeometryERK5QRect@Base 4:5.25.0
 _ZN8KWayland6Server21PlasmaWindowInterface7Private13closeCallbackEP9wl_clientP11wl_resource@Base 4:5.4.0
 _ZN8KWayland6Server21PlasmaWindowInterface7Private14createResourceEP11wl_resourcej@Base 4:5.4.0
 _ZN8KWayland6Server21PlasmaWindowInterface7Private15destroyCallbackEP9wl_clientP11wl_resource@Base 4:5.23.0
 _ZN8KWayland6Server21PlasmaWindowInterface7Private15getIconCallbackEP9wl_clientP11wl_resourcei@Base 4:5.28.0
 _ZN8KWayland6Server21PlasmaWindowInterface7Private15setParentWindowEPS1_@Base 4:5.24.0
 _ZN8KWayland6Server21PlasmaWindowInterface7Private16setStateCallbackEP9wl_clientP11wl_resourcejj@Base 4:5.4.0
 _ZN8KWayland6Server21PlasmaWindowInterface7Private17setThemedIconNameERK7QString@Base 4:5.4.0
 _ZN8KWayland6Server21PlasmaWindowInterface7Private17setVirtualDesktopEj@Base 4:5.4.0
 _ZN8KWayland6Server21PlasmaWindowInterface7Private19requestMoveCallbackEP9wl_clientP11wl_resource@Base 4:5.22.0
 _ZN8KWayland6Server21PlasmaWindowInterface7Private21requestResizeCallbackEP9wl_clientP11wl_resource@Base 4:5.22.0
 _ZN8KWayland6Server21PlasmaWindowInterface7Private23setApplicationMenuPathsERK7QStringS5_@Base 4:5.69.0
 _ZN8KWayland6Server21PlasmaWindowInterface7Private25setVirtualDesktopCallbackEP9wl_clientP11wl_resourcej@Base 4:5.4.0
 _ZN8KWayland6Server21PlasmaWindowInterface7Private28setMinimizedGeometryCallbackEP9wl_clientP11wl_resourceS6_jjjj@Base 4:5.5.0
 _ZN8KWayland6Server21PlasmaWindowInterface7Private30unsetMinimizedGeometryCallbackEP9wl_clientP11wl_resourceS6_@Base 4:5.5.0
 _ZN8KWayland6Server21PlasmaWindowInterface7Private34requestEnterVirtualDesktopCallbackEP9wl_clientP11wl_resourcePKc@Base 4:5.52.0
 _ZN8KWayland6Server21PlasmaWindowInterface7Private34requestLeaveVirtualDesktopCallbackEP9wl_clientP11wl_resourcePKc@Base 4:5.52.0
 _ZN8KWayland6Server21PlasmaWindowInterface7Private37requestEnterNewVirtualDesktopCallbackEP9wl_clientP11wl_resource@Base 4:5.52.0
 _ZN8KWayland6Server21PlasmaWindowInterface7Private5unmapEv@Base 4:5.4.0
 _ZN8KWayland6Server21PlasmaWindowInterface7Private6setPidEj@Base 4:5.35.0
 _ZN8KWayland6Server21PlasmaWindowInterface7Private6unbindEP11wl_resource@Base 4:5.4.0
 _ZN8KWayland6Server21PlasmaWindowInterface7Private7setIconERK5QIcon@Base 4:5.28.0
 _ZN8KWayland6Server21PlasmaWindowInterface7Private8setAppIdERK7QString@Base 4:5.4.0
 _ZN8KWayland6Server21PlasmaWindowInterface7Private8setStateE38org_kde_plasma_window_management_stateb@Base 4:5.4.0
 _ZN8KWayland6Server21PlasmaWindowInterface7Private8setTitleERK7QString@Base 4:5.4.0
 _ZN8KWayland6Server21PlasmaWindowInterface7PrivateC1EPNS0_31PlasmaWindowManagementInterfaceEPS1_@Base 4:5.4.0
 _ZN8KWayland6Server21PlasmaWindowInterface7PrivateC2EPNS0_31PlasmaWindowManagementInterfaceEPS1_@Base 4:5.4.0
 _ZN8KWayland6Server21PlasmaWindowInterface7PrivateD1Ev@Base 4:5.4.0
 _ZN8KWayland6Server21PlasmaWindowInterface7PrivateD2Ev@Base 4:5.4.0
 _ZN8KWayland6Server21PlasmaWindowInterface7setIconERK5QIcon@Base 4:5.28.0
 _ZN8KWayland6Server21PlasmaWindowInterface8setAppIdERK7QString@Base 4:5.4.0
 _ZN8KWayland6Server21PlasmaWindowInterface8setTitleERK7QString@Base 4:5.4.0
 _ZN8KWayland6Server21PlasmaWindowInterface9setActiveEb@Base 4:5.4.0
 _ZN8KWayland6Server21PlasmaWindowInterface9setShadedEb@Base 4:5.22.0
 _ZN8KWayland6Server21PlasmaWindowInterfaceC1EPNS0_31PlasmaWindowManagementInterfaceEP7QObject@Base 4:5.4.0
 _ZN8KWayland6Server21PlasmaWindowInterfaceC2EPNS0_31PlasmaWindowManagementInterfaceEP7QObject@Base 4:5.4.0
 _ZN8KWayland6Server21PlasmaWindowInterfaceD0Ev@Base 4:5.4.0
 _ZN8KWayland6Server21PlasmaWindowInterfaceD1Ev@Base 4:5.4.0
 _ZN8KWayland6Server21PlasmaWindowInterfaceD2Ev@Base 4:5.4.0
 _ZN8KWayland6Server21ShellSurfaceInterface11pingTimeoutEv@Base 4:5.1.1+git20141128.0009
 _ZN8KWayland6Server21ShellSurfaceInterface11qt_metacallEN11QMetaObject4CallEiPPv@Base 4:5.1.1+git20141128.0009
 _ZN8KWayland6Server21ShellSurfaceInterface11qt_metacastEPKc@Base 4:5.1.1+git20141128.0009
 _ZN8KWayland6Server21ShellSurfaceInterface11requestSizeERK5QSize@Base 4:5.1.1+git20141128.0009
 _ZN8KWayland6Server21ShellSurfaceInterface12pongReceivedEv@Base 4:5.1.1+git20141128.0009
 _ZN8KWayland6Server21ShellSurfaceInterface12popupChangedEb@Base 4:5.5.0
 _ZN8KWayland6Server21ShellSurfaceInterface12titleChangedERK7QString@Base 4:5.1.1+git20141128.0009
 _ZN8KWayland6Server21ShellSurfaceInterface13moveRequestedEPNS0_13SeatInterfaceEj@Base 4:5.5.0
 _ZN8KWayland6Server21ShellSurfaceInterface14setPingTimeoutEj@Base 4:5.1.1+git20141128.0009
 _ZN8KWayland6Server21ShellSurfaceInterface15resizeRequestedEPNS0_13SeatInterfaceEj6QFlagsIN2Qt4EdgeEE@Base 4:5.5.0
 _ZN8KWayland6Server21ShellSurfaceInterface15toplevelChangedEb@Base 4:5.1.1+git20141128.0009
 _ZN8KWayland6Server21ShellSurfaceInterface16maximizedChangedEb@Base 4:5.1.1+git20141216.0026+15.04
 _ZN8KWayland6Server21ShellSurfaceInterface16staticMetaObjectE@Base 4:5.1.1+git20141128.0009
 _ZN8KWayland6Server21ShellSurfaceInterface16transientChangedEb@Base 4:5.5.0
 _ZN8KWayland6Server21ShellSurfaceInterface17fullscreenChangedEb@Base 4:5.1.1+git20141128.0009
 _ZN8KWayland6Server21ShellSurfaceInterface18windowClassChangedERK10QByteArray@Base 4:5.1.1+git20141128.0009
 _ZN8KWayland6Server21ShellSurfaceInterface19transientForChangedEv@Base 4:5.5.0
 _ZN8KWayland6Server21ShellSurfaceInterface22transientOffsetChangedERK6QPoint@Base 4:5.5.0
 _ZN8KWayland6Server21ShellSurfaceInterface27acceptsKeyboardFocusChangedEv@Base 4:5.5.0
 _ZN8KWayland6Server21ShellSurfaceInterface4pingEv@Base 4:5.1.1+git20141128.0009
 _ZN8KWayland6Server21ShellSurfaceInterface7Private11s_interfaceE@Base 4:5.1.1+git20141128.0009
 _ZN8KWayland6Server21ShellSurfaceInterface7Private12pongCallbackEP9wl_clientP11wl_resourcej@Base 4:5.1.1+git20141128.0009
 _ZN8KWayland6Server21ShellSurfaceInterface7Private13setWindowModeENS2_10WindowModeE@Base 4:5.2.0+git20150217
 _ZN8KWayland6Server21ShellSurfaceInterface7Private15setAcceptsFocusEj@Base 4:5.5.0
 _ZN8KWayland6Server21ShellSurfaceInterface7Private16setPopupCallbackEP9wl_clientP11wl_resourceS6_jS6_iij@Base 4:5.5.0
 _ZN8KWayland6Server21ShellSurfaceInterface7Private19setToplevelCallbackEP9wl_clientP11wl_resource@Base 4:5.1.1+git20141128.0009
 _ZN8KWayland6Server21ShellSurfaceInterface7Private20setMaximizedCallbackEP9wl_clientP11wl_resourceS6_@Base 4:5.1.1+git20141128.0009
 _ZN8KWayland6Server21ShellSurfaceInterface7Private20setTransientCallbackEP9wl_clientP11wl_resourceS6_iij@Base 4:5.1.1+git20141128.0009
 _ZN8KWayland6Server21ShellSurfaceInterface7Private21setFullscreenCallbackEP9wl_clientP11wl_resourcejjS6_@Base 4:5.1.1+git20141128.0009
 _ZN8KWayland6Server21ShellSurfaceInterface7Private4pingEv@Base 4:5.1.1+git20141128.0009
 _ZN8KWayland6Server21ShellSurfaceInterface7Private4pongEj@Base 4:5.1.1+git20141128.0009
 _ZN8KWayland6Server21ShellSurfaceInterface7Private6commitEv@Base 4:5.69.0
 _ZN8KWayland6Server21ShellSurfaceInterface7PrivateC1EPS1_PNS0_14ShellInterfaceEPNS0_16SurfaceInterfaceEP11wl_resource@Base 4:5.1.1+git20141128.0009
 _ZN8KWayland6Server21ShellSurfaceInterface7PrivateC2EPS1_PNS0_14ShellInterfaceEPNS0_16SurfaceInterfaceEP11wl_resource@Base 4:5.1.1+git20141128.0009
 _ZN8KWayland6Server21ShellSurfaceInterface9popupDoneEv@Base 4:5.35.0
 _ZN8KWayland6Server21ShellSurfaceInterfaceC1EPNS0_14ShellInterfaceEPNS0_16SurfaceInterfaceEP11wl_resource@Base 4:5.1.1+git20141128.0009
 _ZN8KWayland6Server21ShellSurfaceInterfaceC2EPNS0_14ShellInterfaceEPNS0_16SurfaceInterfaceEP11wl_resource@Base 4:5.1.1+git20141128.0009
 _ZN8KWayland6Server21ShellSurfaceInterfaceD0Ev@Base 4:5.1.1+git20141128.0009
 _ZN8KWayland6Server21ShellSurfaceInterfaceD1Ev@Base 4:5.1.1+git20141128.0009
 _ZN8KWayland6Server21ShellSurfaceInterfaceD2Ev@Base 4:5.1.1+git20141128.0009
 _ZN8KWayland6Server21SlideManagerInterface11qt_metacallEN11QMetaObject4CallEiPPv@Base 4:5.5.0
 _ZN8KWayland6Server21SlideManagerInterface11qt_metacastEPKc@Base 4:5.5.0
 _ZN8KWayland6Server21SlideManagerInterface16staticMetaObjectE@Base 4:5.5.0
 _ZN8KWayland6Server21SlideManagerInterface7Private11createSlideEP9wl_clientP11wl_resourcejS6_@Base 4:5.5.0
 _ZN8KWayland6Server21SlideManagerInterface7Private11s_interfaceE@Base 4:5.5.0
 _ZN8KWayland6Server21SlideManagerInterface7Private13unsetCallbackEP9wl_clientP11wl_resourceS6_@Base 4:5.5.0
 _ZN8KWayland6Server21SlideManagerInterface7Private14createCallbackEP9wl_clientP11wl_resourcejS6_@Base 4:5.5.0
 _ZN8KWayland6Server21SlideManagerInterface7Private4bindEP9wl_clientjj@Base 4:5.5.0
 _ZN8KWayland6Server21SlideManagerInterface7Private6unbindEP11wl_resource@Base 4:5.5.0
 _ZN8KWayland6Server21SlideManagerInterface7Private9s_versionE@Base 4:5.5.0
 _ZN8KWayland6Server21SlideManagerInterface7PrivateC1EPS1_PNS0_7DisplayE@Base 4:5.5.0
 _ZN8KWayland6Server21SlideManagerInterface7PrivateC2EPS1_PNS0_7DisplayE@Base 4:5.5.0
 _ZN8KWayland6Server21SlideManagerInterfaceC1EPNS0_7DisplayEP7QObject@Base 4:5.5.0
 _ZN8KWayland6Server21SlideManagerInterfaceC2EPNS0_7DisplayEP7QObject@Base 4:5.5.0
 _ZN8KWayland6Server21SlideManagerInterfaceD0Ev@Base 4:5.5.0
 _ZN8KWayland6Server21SlideManagerInterfaceD1Ev@Base 4:5.5.0
 _ZN8KWayland6Server21SlideManagerInterfaceD2Ev@Base 4:5.5.0
 _ZN8KWayland6Server22LockedPointerInterface11qt_metacallEN11QMetaObject4CallEiPPv@Base 4:5.35.0
 _ZN8KWayland6Server22LockedPointerInterface11qt_metacastEPKc@Base 4:5.35.0
 _ZN8KWayland6Server22LockedPointerInterface13lockedChangedEv@Base 4:5.35.0
 _ZN8KWayland6Server22LockedPointerInterface13regionChangedEv@Base 4:5.35.0
 _ZN8KWayland6Server22LockedPointerInterface16staticMetaObjectE@Base 4:5.35.0
 _ZN8KWayland6Server22LockedPointerInterface25cursorPositionHintChangedEv@Base 4:5.49.0
 _ZN8KWayland6Server22LockedPointerInterface7Private6commitEv@Base 4:5.35.0
 _ZN8KWayland6Server22LockedPointerInterface7PrivateC1ENS0_34PointerConstraintsInterfaceVersionEPS1_PNS0_6GlobalEP11wl_resourcePK12wl_interfacePKv@Base 4:5.35.0
 _ZN8KWayland6Server22LockedPointerInterface7PrivateC2ENS0_34PointerConstraintsInterfaceVersionEPS1_PNS0_6GlobalEP11wl_resourcePK12wl_interfacePKv@Base 4:5.35.0
 _ZN8KWayland6Server22LockedPointerInterface7PrivateD0Ev@Base 4:5.35.0
 _ZN8KWayland6Server22LockedPointerInterface7PrivateD1Ev@Base 4:5.35.0
 _ZN8KWayland6Server22LockedPointerInterface7PrivateD2Ev@Base 4:5.35.0
 _ZN8KWayland6Server22LockedPointerInterface9setLockedEb@Base 4:5.35.0
 _ZN8KWayland6Server22LockedPointerInterfaceC1EPNS1_7PrivateEP7QObject@Base 4:5.35.0
 _ZN8KWayland6Server22LockedPointerInterfaceC2EPNS1_7PrivateEP7QObject@Base 4:5.35.0
 _ZN8KWayland6Server22LockedPointerInterfaceD0Ev@Base 4:5.35.0
 _ZN8KWayland6Server22LockedPointerInterfaceD1Ev@Base 4:5.35.0
 _ZN8KWayland6Server22LockedPointerInterfaceD2Ev@Base 4:5.35.0
 _ZN8KWayland6Server22ShadowManagerInterface11qt_metacallEN11QMetaObject4CallEiPPv@Base 4:5.4.0
 _ZN8KWayland6Server22ShadowManagerInterface11qt_metacastEPKc@Base 4:5.4.0
 _ZN8KWayland6Server22ShadowManagerInterface16staticMetaObjectE@Base 4:5.4.0
 _ZN8KWayland6Server22ShadowManagerInterface7Private11s_interfaceE@Base 4:5.4.0
 _ZN8KWayland6Server22ShadowManagerInterface7Private12createShadowEP9wl_clientP11wl_resourcejS6_@Base 4:5.4.0
 _ZN8KWayland6Server22ShadowManagerInterface7Private13unsetCallbackEP9wl_clientP11wl_resourceS6_@Base 4:5.4.0
 _ZN8KWayland6Server22ShadowManagerInterface7Private14createCallbackEP9wl_clientP11wl_resourcejS6_@Base 4:5.4.0
 _ZN8KWayland6Server22ShadowManagerInterface7Private15destroyCallbackEP9wl_clientP11wl_resource@Base 4:5.24.0
 _ZN8KWayland6Server22ShadowManagerInterface7Private4bindEP9wl_clientjj@Base 4:5.4.0
 _ZN8KWayland6Server22ShadowManagerInterface7Private6unbindEP11wl_resource@Base 4:5.4.0
 _ZN8KWayland6Server22ShadowManagerInterface7Private9s_versionE@Base 4:5.5.0
 _ZN8KWayland6Server22ShadowManagerInterface7PrivateC1EPS1_PNS0_7DisplayE@Base 4:5.4.0
 _ZN8KWayland6Server22ShadowManagerInterface7PrivateC2EPS1_PNS0_7DisplayE@Base 4:5.4.0
 _ZN8KWayland6Server22ShadowManagerInterfaceC1EPNS0_7DisplayEP7QObject@Base 4:5.4.0
 _ZN8KWayland6Server22ShadowManagerInterfaceC2EPNS0_7DisplayEP7QObject@Base 4:5.4.0
 _ZN8KWayland6Server22ShadowManagerInterfaceD0Ev@Base 4:5.4.0
 _ZN8KWayland6Server22ShadowManagerInterfaceD1Ev@Base 4:5.4.0
 _ZN8KWayland6Server22ShadowManagerInterfaceD2Ev@Base 4:5.4.0
 _ZN8KWayland6Server22SubCompositorInterface11qt_metacallEN11QMetaObject4CallEiPPv@Base 4:5.1.1+git20141128.0009
 _ZN8KWayland6Server22SubCompositorInterface11qt_metacastEPKc@Base 4:5.1.1+git20141128.0009
 _ZN8KWayland6Server22SubCompositorInterface16staticMetaObjectE@Base 4:5.1.1+git20141128.0009
 _ZN8KWayland6Server22SubCompositorInterface17subSurfaceCreatedEPNS0_19SubSurfaceInterfaceE@Base 4:5.1.1+git20141128.0009
 _ZN8KWayland6Server22SubCompositorInterface7Private10subsurfaceEP9wl_clientP11wl_resourcejS6_S6_@Base 4:5.1.1+git20141128.0009
 _ZN8KWayland6Server22SubCompositorInterface7Private11s_interfaceE@Base 4:5.1.1+git20141128.0009
 _ZN8KWayland6Server22SubCompositorInterface7Private15destroyCallbackEP9wl_clientP11wl_resource@Base 4:5.1.1+git20141128.0009
 _ZN8KWayland6Server22SubCompositorInterface7Private18subsurfaceCallbackEP9wl_clientP11wl_resourcejS6_S6_@Base 4:5.1.1+git20141128.0009
 _ZN8KWayland6Server22SubCompositorInterface7Private4bindEP9wl_clientjj@Base 4:5.1.1+git20141128.0009
 _ZN8KWayland6Server22SubCompositorInterface7Private6unbindEP11wl_resource@Base 4:5.1.1+git20141128.0009
 _ZN8KWayland6Server22SubCompositorInterface7Private9s_versionE@Base 4:5.5.0
 _ZN8KWayland6Server22SubCompositorInterface7PrivateC1EPS1_PNS0_7DisplayE@Base 4:5.1.1+git20141128.0009
 _ZN8KWayland6Server22SubCompositorInterface7PrivateC2EPS1_PNS0_7DisplayE@Base 4:5.1.1+git20141128.0009
 _ZN8KWayland6Server22SubCompositorInterfaceC1EPNS0_7DisplayEP7QObject@Base 4:5.1.1+git20141128.0009
 _ZN8KWayland6Server22SubCompositorInterfaceC2EPNS0_7DisplayEP7QObject@Base 4:5.1.1+git20141128.0009
 _ZN8KWayland6Server22SubCompositorInterfaceD0Ev@Base 4:5.1.1+git20141128.0009
 _ZN8KWayland6Server22SubCompositorInterfaceD1Ev@Base 4:5.1.1+git20141128.0009
 _ZN8KWayland6Server22SubCompositorInterfaceD2Ev@Base 4:5.1.1+git20141128.0009
 _ZN8KWayland6Server22TabletManagerInterface11qt_metacallEN11QMetaObject4CallEiPPv@Base 4:5.69.0
 _ZN8KWayland6Server22TabletManagerInterface11qt_metacastEPKc@Base 4:5.69.0
 _ZN8KWayland6Server22TabletManagerInterface16staticMetaObjectE@Base 4:5.69.0
 _ZN8KWayland6Server22TabletManagerInterfaceC1EPNS0_7DisplayEP7QObject@Base 4:5.69.0
 _ZN8KWayland6Server22TabletManagerInterfaceC2EPNS0_7DisplayEP7QObject@Base 4:5.69.0
 _ZN8KWayland6Server22TabletManagerInterfaceD0Ev@Base 4:5.69.0
 _ZN8KWayland6Server22TabletManagerInterfaceD1Ev@Base 4:5.69.0
 _ZN8KWayland6Server22TabletManagerInterfaceD2Ev@Base 4:5.69.0
 _ZN8KWayland6Server22XdgDecorationInterface11qt_metacallEN11QMetaObject4CallEiPPv@Base 4:5.54.0
 _ZN8KWayland6Server22XdgDecorationInterface11qt_metacastEPKc@Base 4:5.54.0
 _ZN8KWayland6Server22XdgDecorationInterface13modeRequestedENS1_4ModeE@Base 4:5.54.0
 _ZN8KWayland6Server22XdgDecorationInterface16staticMetaObjectE@Base 4:5.54.0
 _ZN8KWayland6Server22XdgDecorationInterface7Private11s_interfaceE@Base 4:5.54.0
 _ZN8KWayland6Server22XdgDecorationInterface7Private15setModeCallbackEP9wl_clientP11wl_resourcej@Base 4:5.54.0
 _ZN8KWayland6Server22XdgDecorationInterface7Private17unsetModeCallbackEP9wl_clientP11wl_resource@Base 4:5.54.0
 _ZN8KWayland6Server22XdgDecorationInterface7PrivateC1EPS1_PNS0_29XdgDecorationManagerInterfaceEPNS0_24XdgShellSurfaceInterfaceEP11wl_resource@Base 4:5.54.0
 _ZN8KWayland6Server22XdgDecorationInterface7PrivateC2EPS1_PNS0_29XdgDecorationManagerInterfaceEPNS0_24XdgShellSurfaceInterfaceEP11wl_resource@Base 4:5.54.0
 _ZN8KWayland6Server22XdgDecorationInterface7PrivateD0Ev@Base 4:5.54.0
 _ZN8KWayland6Server22XdgDecorationInterface7PrivateD1Ev@Base 4:5.54.0
 _ZN8KWayland6Server22XdgDecorationInterface7PrivateD2Ev@Base 4:5.54.0
 _ZN8KWayland6Server22XdgDecorationInterface9configureENS1_4ModeE@Base 4:5.54.0
 _ZN8KWayland6Server22XdgDecorationInterfaceC1EPNS0_29XdgDecorationManagerInterfaceEPNS0_24XdgShellSurfaceInterfaceEP11wl_resource@Base 4:5.54.0
 _ZN8KWayland6Server22XdgDecorationInterfaceC2EPNS0_29XdgDecorationManagerInterfaceEPNS0_24XdgShellSurfaceInterfaceEP11wl_resource@Base 4:5.54.0
 _ZN8KWayland6Server22XdgDecorationInterfaceD0Ev@Base 4:5.54.0
 _ZN8KWayland6Server22XdgDecorationInterfaceD1Ev@Base 4:5.54.0
 _ZN8KWayland6Server22XdgDecorationInterfaceD2Ev@Base 4:5.54.0
 _ZN8KWayland6Server22XdgShellPopupInterface11qt_metacallEN11QMetaObject4CallEiPPv@Base 4:5.25.0
 _ZN8KWayland6Server22XdgShellPopupInterface11qt_metacastEPKc@Base 4:5.25.0
 _ZN8KWayland6Server22XdgShellPopupInterface13grabRequestedEPNS0_13SeatInterfaceEj@Base 4:5.41.0
 _ZN8KWayland6Server22XdgShellPopupInterface16staticMetaObjectE@Base 4:5.25.0
 _ZN8KWayland6Server22XdgShellPopupInterface21configureAcknowledgedEj@Base 4:5.41.0
 _ZN8KWayland6Server22XdgShellPopupInterface21windowGeometryChangedERK5QRect@Base 4:5.61.0
 _ZN8KWayland6Server22XdgShellPopupInterface7PrivateC1ENS0_24XdgShellInterfaceVersionEPS1_PNS0_17XdgShellInterfaceEPNS0_16SurfaceInterfaceEP11wl_resourcePK12wl_interfacePKv@Base 4:5.25.0
 _ZN8KWayland6Server22XdgShellPopupInterface7PrivateC2ENS0_24XdgShellInterfaceVersionEPS1_PNS0_17XdgShellInterfaceEPNS0_16SurfaceInterfaceEP11wl_resourcePK12wl_interfacePKv@Base 4:5.25.0
 _ZN8KWayland6Server22XdgShellPopupInterface7PrivateD0Ev@Base 4:5.25.0
 _ZN8KWayland6Server22XdgShellPopupInterface7PrivateD1Ev@Base 4:5.25.0
 _ZN8KWayland6Server22XdgShellPopupInterface7PrivateD2Ev@Base 4:5.25.0
 _ZN8KWayland6Server22XdgShellPopupInterface9configureERK5QRect@Base 4:5.41.0
 _ZN8KWayland6Server22XdgShellPopupInterface9popupDoneEv@Base 4:5.25.0
 _ZN8KWayland6Server22XdgShellPopupInterfaceC1EPNS1_7PrivateE@Base 4:5.25.0
 _ZN8KWayland6Server22XdgShellPopupInterfaceC2EPNS1_7PrivateE@Base 4:5.25.0
 _ZN8KWayland6Server22XdgShellPopupInterfaceD0Ev@Base 4:5.25.0
 _ZN8KWayland6Server22XdgShellPopupInterfaceD1Ev@Base 4:5.25.0
 _ZN8KWayland6Server22XdgShellPopupInterfaceD2Ev@Base 4:5.25.0
 _ZN8KWayland6Server23AppMenuManagerInterface11qt_metacallEN11QMetaObject4CallEiPPv@Base 4:5.42.0
 _ZN8KWayland6Server23AppMenuManagerInterface11qt_metacastEPKc@Base 4:5.42.0
 _ZN8KWayland6Server23AppMenuManagerInterface14appMenuCreatedEPNS0_16AppMenuInterfaceE@Base 4:5.42.0
 _ZN8KWayland6Server23AppMenuManagerInterface16staticMetaObjectE@Base 4:5.42.0
 _ZN8KWayland6Server23AppMenuManagerInterface17appMenuForSurfaceEPNS0_16SurfaceInterfaceE@Base 4:5.42.0
 _ZN8KWayland6Server23AppMenuManagerInterface7Private11s_interfaceE@Base 4:5.42.0
 _ZN8KWayland6Server23AppMenuManagerInterface7Private14createCallbackEP9wl_clientP11wl_resourcejS6_@Base 4:5.42.0
 _ZN8KWayland6Server23AppMenuManagerInterface7Private4bindEP9wl_clientjj@Base 4:5.42.0
 _ZN8KWayland6Server23AppMenuManagerInterface7Private6unbindEP11wl_resource@Base 4:5.42.0
 _ZN8KWayland6Server23AppMenuManagerInterface7Private9s_versionE@Base 4:5.42.0
 _ZN8KWayland6Server23AppMenuManagerInterface7PrivateC1EPS1_PNS0_7DisplayE@Base 4:5.42.0
 _ZN8KWayland6Server23AppMenuManagerInterface7PrivateC2EPS1_PNS0_7DisplayE@Base 4:5.42.0
 _ZN8KWayland6Server23AppMenuManagerInterfaceC1EPNS0_7DisplayEP7QObject@Base 4:5.42.0
 _ZN8KWayland6Server23AppMenuManagerInterfaceC2EPNS0_7DisplayEP7QObject@Base 4:5.42.0
 _ZN8KWayland6Server23AppMenuManagerInterfaceD0Ev@Base 4:5.42.0
 _ZN8KWayland6Server23AppMenuManagerInterfaceD1Ev@Base 4:5.42.0
 _ZN8KWayland6Server23AppMenuManagerInterfaceD2Ev@Base 4:5.42.0
 _ZN8KWayland6Server24ConfinedPointerInterface11qt_metacallEN11QMetaObject4CallEiPPv@Base 4:5.35.0
 _ZN8KWayland6Server24ConfinedPointerInterface11qt_metacastEPKc@Base 4:5.35.0
 _ZN8KWayland6Server24ConfinedPointerInterface11setConfinedEb@Base 4:5.35.0
 _ZN8KWayland6Server24ConfinedPointerInterface13regionChangedEv@Base 4:5.35.0
 _ZN8KWayland6Server24ConfinedPointerInterface15confinedChangedEv@Base 4:5.35.0
 _ZN8KWayland6Server24ConfinedPointerInterface16staticMetaObjectE@Base 4:5.35.0
 _ZN8KWayland6Server24ConfinedPointerInterface7Private6commitEv@Base 4:5.35.0
 _ZN8KWayland6Server24ConfinedPointerInterface7PrivateC1ENS0_34PointerConstraintsInterfaceVersionEPS1_PNS0_6GlobalEP11wl_resourcePK12wl_interfacePKv@Base 4:5.35.0
 _ZN8KWayland6Server24ConfinedPointerInterface7PrivateC2ENS0_34PointerConstraintsInterfaceVersionEPS1_PNS0_6GlobalEP11wl_resourcePK12wl_interfacePKv@Base 4:5.35.0
 _ZN8KWayland6Server24ConfinedPointerInterface7PrivateD0Ev@Base 4:5.35.0
 _ZN8KWayland6Server24ConfinedPointerInterface7PrivateD1Ev@Base 4:5.35.0
 _ZN8KWayland6Server24ConfinedPointerInterface7PrivateD2Ev@Base 4:5.35.0
 _ZN8KWayland6Server24ConfinedPointerInterfaceC1EPNS1_7PrivateEP7QObject@Base 4:5.35.0
 _ZN8KWayland6Server24ConfinedPointerInterfaceC2EPNS1_7PrivateEP7QObject@Base 4:5.35.0
 _ZN8KWayland6Server24ConfinedPointerInterfaceD0Ev@Base 4:5.35.0
 _ZN8KWayland6Server24ConfinedPointerInterfaceD1Ev@Base 4:5.35.0
 _ZN8KWayland6Server24ConfinedPointerInterfaceD2Ev@Base 4:5.35.0
 _ZN8KWayland6Server24ContrastManagerInterface11qt_metacallEN11QMetaObject4CallEiPPv@Base 4:5.5.0
 _ZN8KWayland6Server24ContrastManagerInterface11qt_metacastEPKc@Base 4:5.5.0
 _ZN8KWayland6Server24ContrastManagerInterface16staticMetaObjectE@Base 4:5.5.0
 _ZN8KWayland6Server24ContrastManagerInterface7Private11s_interfaceE@Base 4:5.5.0
 _ZN8KWayland6Server24ContrastManagerInterface7Private13unsetCallbackEP9wl_clientP11wl_resourceS6_@Base 4:5.5.0
 _ZN8KWayland6Server24ContrastManagerInterface7Private14createCallbackEP9wl_clientP11wl_resourcejS6_@Base 4:5.5.0
 _ZN8KWayland6Server24ContrastManagerInterface7Private14createContrastEP9wl_clientP11wl_resourcejS6_@Base 4:5.5.0
 _ZN8KWayland6Server24ContrastManagerInterface7Private4bindEP9wl_clientjj@Base 4:5.5.0
 _ZN8KWayland6Server24ContrastManagerInterface7Private6unbindEP11wl_resource@Base 4:5.5.0
 _ZN8KWayland6Server24ContrastManagerInterface7Private9s_versionE@Base 4:5.5.0
 _ZN8KWayland6Server24ContrastManagerInterface7PrivateC1EPS1_PNS0_7DisplayE@Base 4:5.5.0
 _ZN8KWayland6Server24ContrastManagerInterface7PrivateC2EPS1_PNS0_7DisplayE@Base 4:5.5.0
 _ZN8KWayland6Server24ContrastManagerInterfaceC1EPNS0_7DisplayEP7QObject@Base 4:5.5.0
 _ZN8KWayland6Server24ContrastManagerInterfaceC2EPNS0_7DisplayEP7QObject@Base 4:5.5.0
 _ZN8KWayland6Server24ContrastManagerInterfaceD0Ev@Base 4:5.5.0
 _ZN8KWayland6Server24ContrastManagerInterfaceD1Ev@Base 4:5.5.0
 _ZN8KWayland6Server24ContrastManagerInterfaceD2Ev@Base 4:5.5.0
 _ZN8KWayland6Server24PointerGesturesInterface11qt_metacallEN11QMetaObject4CallEiPPv@Base 4:5.35.0
 _ZN8KWayland6Server24PointerGesturesInterface11qt_metacastEPKc@Base 4:5.35.0
 _ZN8KWayland6Server24PointerGesturesInterface16staticMetaObjectE@Base 4:5.35.0
 _ZN8KWayland6Server24PointerGesturesInterface7PrivateC1ENS0_31PointerGesturesInterfaceVersionEPS1_PNS0_7DisplayEPK12wl_interfacej@Base 4:5.35.0
 _ZN8KWayland6Server24PointerGesturesInterface7PrivateC2ENS0_31PointerGesturesInterfaceVersionEPS1_PNS0_7DisplayEPK12wl_interfacej@Base 4:5.35.0
 _ZN8KWayland6Server24PointerGesturesInterfaceC1EPNS1_7PrivateEP7QObject@Base 4:5.35.0
 _ZN8KWayland6Server24PointerGesturesInterfaceC2EPNS1_7PrivateEP7QObject@Base 4:5.35.0
 _ZN8KWayland6Server24PointerGesturesInterfaceD0Ev@Base 4:5.35.0
 _ZN8KWayland6Server24PointerGesturesInterfaceD1Ev@Base 4:5.35.0
 _ZN8KWayland6Server24PointerGesturesInterfaceD2Ev@Base 4:5.35.0
 _ZN8KWayland6Server24XdgShellSurfaceInterface11qt_metacallEN11QMetaObject4CallEiPPv@Base 4:5.25.0
 _ZN8KWayland6Server24XdgShellSurfaceInterface11qt_metacastEPKc@Base 4:5.25.0
 _ZN8KWayland6Server24XdgShellSurfaceInterface12titleChangedERK7QString@Base 4:5.25.0
 _ZN8KWayland6Server24XdgShellSurfaceInterface13moveRequestedEPNS0_13SeatInterfaceEj@Base 4:5.25.0
 _ZN8KWayland6Server24XdgShellSurfaceInterface14maxSizeChangedERK5QSize@Base 4:5.41.0
 _ZN8KWayland6Server24XdgShellSurfaceInterface14minSizeChangedERK5QSize@Base 4:5.41.0
 _ZN8KWayland6Server24XdgShellSurfaceInterface15resizeRequestedEPNS0_13SeatInterfaceEj6QFlagsIN2Qt4EdgeEE@Base 4:5.25.0
 _ZN8KWayland6Server24XdgShellSurfaceInterface16maximizedChangedEb@Base 4:5.25.0
 _ZN8KWayland6Server24XdgShellSurfaceInterface16staticMetaObjectE@Base 4:5.25.0
 _ZN8KWayland6Server24XdgShellSurfaceInterface17fullscreenChangedEbPNS0_15OutputInterfaceE@Base 4:5.25.0
 _ZN8KWayland6Server24XdgShellSurfaceInterface17minimizeRequestedEv@Base 4:5.25.0
 _ZN8KWayland6Server24XdgShellSurfaceInterface18windowClassChangedERK10QByteArray@Base 4:5.25.0
 _ZN8KWayland6Server24XdgShellSurfaceInterface19transientForChangedEv@Base 4:5.25.0
 _ZN8KWayland6Server24XdgShellSurfaceInterface19windowMenuRequestedEPNS0_13SeatInterfaceEjRK6QPoint@Base 4:5.25.0
 _ZN8KWayland6Server24XdgShellSurfaceInterface21configureAcknowledgedEj@Base 4:5.25.0
 _ZN8KWayland6Server24XdgShellSurfaceInterface21windowGeometryChangedERK5QRect@Base 4:5.61.0
 _ZN8KWayland6Server24XdgShellSurfaceInterface5closeEv@Base 4:5.25.0
 _ZN8KWayland6Server24XdgShellSurfaceInterface7PrivateC1ENS0_24XdgShellInterfaceVersionEPS1_PNS0_6GlobalEPNS0_16SurfaceInterfaceEP11wl_resourcePK12wl_interfacePKv@Base 4:5.41.0
 _ZN8KWayland6Server24XdgShellSurfaceInterface7PrivateC2ENS0_24XdgShellInterfaceVersionEPS1_PNS0_6GlobalEPNS0_16SurfaceInterfaceEP11wl_resourcePK12wl_interfacePKv@Base 4:5.41.0
 _ZN8KWayland6Server24XdgShellSurfaceInterface7PrivateD0Ev@Base 4:5.25.0
 _ZN8KWayland6Server24XdgShellSurfaceInterface7PrivateD1Ev@Base 4:5.25.0
 _ZN8KWayland6Server24XdgShellSurfaceInterface7PrivateD2Ev@Base 4:5.25.0
 _ZN8KWayland6Server24XdgShellSurfaceInterface9configureE6QFlagsINS1_5StateEERK5QSize@Base 4:5.25.0
 _ZN8KWayland6Server24XdgShellSurfaceInterfaceC1EPNS1_7PrivateE@Base 4:5.25.0
 _ZN8KWayland6Server24XdgShellSurfaceInterfaceC2EPNS1_7PrivateE@Base 4:5.25.0
 _ZN8KWayland6Server24XdgShellSurfaceInterfaceD0Ev@Base 4:5.25.0
 _ZN8KWayland6Server24XdgShellSurfaceInterfaceD1Ev@Base 4:5.25.0
 _ZN8KWayland6Server24XdgShellSurfaceInterfaceD2Ev@Base 4:5.25.0
 _ZN8KWayland6Server25OutputManagementInterface11qt_metacallEN11QMetaObject4CallEiPPv@Base 4:5.5.0
 _ZN8KWayland6Server25OutputManagementInterface11qt_metacastEPKc@Base 4:5.5.0
 _ZN8KWayland6Server25OutputManagementInterface16staticMetaObjectE@Base 4:5.5.0
 _ZN8KWayland6Server25OutputManagementInterface28configurationChangeRequestedEPNS0_28OutputConfigurationInterfaceE@Base 4:5.5.0
 _ZN8KWayland6Server25OutputManagementInterface7Private11s_interfaceE@Base 4:5.5.0
 _ZN8KWayland6Server25OutputManagementInterface7Private19createConfigurationEP9wl_clientP11wl_resourcej@Base 4:5.5.0
 _ZN8KWayland6Server25OutputManagementInterface7Private27createConfigurationCallbackEP9wl_clientP11wl_resourcej@Base 4:5.5.0
 _ZN8KWayland6Server25OutputManagementInterface7Private4bindEP9wl_clientjj@Base 4:5.5.0
 _ZN8KWayland6Server25OutputManagementInterface7Private6unbindEP11wl_resource@Base 4:5.5.0
 _ZN8KWayland6Server25OutputManagementInterface7Private9s_versionE@Base 4:5.5.0
 _ZN8KWayland6Server25OutputManagementInterface7PrivateC1EPS1_PNS0_7DisplayE@Base 4:5.5.0
 _ZN8KWayland6Server25OutputManagementInterface7PrivateC2EPS1_PNS0_7DisplayE@Base 4:5.5.0
 _ZN8KWayland6Server25OutputManagementInterfaceC1EPNS0_7DisplayEP7QObject@Base 4:5.5.0
 _ZN8KWayland6Server25OutputManagementInterfaceC2EPNS0_7DisplayEP7QObject@Base 4:5.5.0
 _ZN8KWayland6Server25OutputManagementInterfaceD0Ev@Base 4:5.5.0
 _ZN8KWayland6Server25OutputManagementInterfaceD1Ev@Base 4:5.5.0
 _ZN8KWayland6Server25OutputManagementInterfaceD2Ev@Base 4:5.5.0
 _ZN8KWayland6Server25TextInputManagerInterface11qt_metacallEN11QMetaObject4CallEiPPv@Base 4:5.23.0
 _ZN8KWayland6Server25TextInputManagerInterface11qt_metacastEPKc@Base 4:5.23.0
 _ZN8KWayland6Server25TextInputManagerInterface16staticMetaObjectE@Base 4:5.23.0
 _ZN8KWayland6Server25TextInputManagerInterface7PrivateC1ENS0_25TextInputInterfaceVersionEPS1_PNS0_7DisplayEPK12wl_interfacej@Base 4:5.23.0
 _ZN8KWayland6Server25TextInputManagerInterface7PrivateC2ENS0_25TextInputInterfaceVersionEPS1_PNS0_7DisplayEPK12wl_interfacej@Base 4:5.23.0
 _ZN8KWayland6Server25TextInputManagerInterfaceC1EPNS1_7PrivateEP7QObject@Base 4:5.23.0
 _ZN8KWayland6Server25TextInputManagerInterfaceC2EPNS1_7PrivateEP7QObject@Base 4:5.23.0
 _ZN8KWayland6Server25TextInputManagerInterfaceD0Ev@Base 4:5.23.0
 _ZN8KWayland6Server25TextInputManagerInterfaceD1Ev@Base 4:5.23.0
 _ZN8KWayland6Server25TextInputManagerInterfaceD2Ev@Base 4:5.23.0
 _ZN8KWayland6Server25XdgOutputManagerInterface11qt_metacallEN11QMetaObject4CallEiPPv@Base 4:5.47.0
 _ZN8KWayland6Server25XdgOutputManagerInterface11qt_metacastEPKc@Base 4:5.47.0
 _ZN8KWayland6Server25XdgOutputManagerInterface15createXdgOutputEPNS0_15OutputInterfaceEP7QObject@Base 4:5.47.0
 _ZN8KWayland6Server25XdgOutputManagerInterface16staticMetaObjectE@Base 4:5.47.0
 _ZN8KWayland6Server25XdgOutputManagerInterface7Private11s_interfaceE@Base 4:5.47.0
 _ZN8KWayland6Server25XdgOutputManagerInterface7Private15destroyCallbackEP9wl_clientP11wl_resource@Base 4:5.47.0
 _ZN8KWayland6Server25XdgOutputManagerInterface7Private20getXdgOutputCallbackEP9wl_clientP11wl_resourcejS6_@Base 4:5.47.0
 _ZN8KWayland6Server25XdgOutputManagerInterface7Private4bindEP9wl_clientjj@Base 4:5.47.0
 _ZN8KWayland6Server25XdgOutputManagerInterface7Private6unbindEP11wl_resource@Base 4:5.47.0
 _ZN8KWayland6Server25XdgOutputManagerInterface7Private9s_versionE@Base 4:5.47.0
 _ZN8KWayland6Server25XdgOutputManagerInterface7PrivateC1EPS1_PNS0_7DisplayE@Base 4:5.47.0
 _ZN8KWayland6Server25XdgOutputManagerInterface7PrivateC2EPS1_PNS0_7DisplayE@Base 4:5.47.0
 _ZN8KWayland6Server25XdgOutputManagerInterfaceC1EPNS0_7DisplayEP7QObject@Base 4:5.47.0
 _ZN8KWayland6Server25XdgOutputManagerInterfaceC2EPNS0_7DisplayEP7QObject@Base 4:5.47.0
 _ZN8KWayland6Server25XdgOutputManagerInterfaceD0Ev@Base 4:5.47.0
 _ZN8KWayland6Server25XdgOutputManagerInterfaceD1Ev@Base 4:5.47.0
 _ZN8KWayland6Server25XdgOutputManagerInterfaceD2Ev@Base 4:5.47.0
 _ZN8KWayland6Server26DataDeviceManagerInterface11qt_metacallEN11QMetaObject4CallEiPPv@Base 4:5.1.1+git20141128.0009
 _ZN8KWayland6Server26DataDeviceManagerInterface11qt_metacastEPKc@Base 4:5.1.1+git20141128.0009
 _ZN8KWayland6Server26DataDeviceManagerInterface16staticMetaObjectE@Base 4:5.1.1+git20141128.0009
 _ZN8KWayland6Server26DataDeviceManagerInterface17dataDeviceCreatedEPNS0_19DataDeviceInterfaceE@Base 4:5.1.1+git20141128.0009
 _ZN8KWayland6Server26DataDeviceManagerInterface17dataSourceCreatedEPNS0_19DataSourceInterfaceE@Base 4:5.1.1+git20141128.0009
 _ZN8KWayland6Server26DataDeviceManagerInterface7Private11s_interfaceE@Base 4:5.1.1+git20141128.0009
 _ZN8KWayland6Server26DataDeviceManagerInterface7Private13getDataDeviceEP9wl_clientP11wl_resourcejS6_@Base 4:5.1.1+git20141128.0009
 _ZN8KWayland6Server26DataDeviceManagerInterface7Private16createDataSourceEP9wl_clientP11wl_resourcej@Base 4:5.1.1+git20141128.0009
 _ZN8KWayland6Server26DataDeviceManagerInterface7Private19s_dataDeviceVersionE@Base 4:5.5.0
 _ZN8KWayland6Server26DataDeviceManagerInterface7Private19s_dataSourceVersionE@Base 4:5.5.0
 _ZN8KWayland6Server26DataDeviceManagerInterface7Private21getDataDeviceCallbackEP9wl_clientP11wl_resourcejS6_@Base 4:5.1.1+git20141128.0009
 _ZN8KWayland6Server26DataDeviceManagerInterface7Private24createDataSourceCallbackEP9wl_clientP11wl_resourcej@Base 4:5.1.1+git20141128.0009
 _ZN8KWayland6Server26DataDeviceManagerInterface7Private4bindEP9wl_clientjj@Base 4:5.1.1+git20141128.0009
 _ZN8KWayland6Server26DataDeviceManagerInterface7Private6unbindEP11wl_resource@Base 4:5.1.1+git20141128.0009
 _ZN8KWayland6Server26DataDeviceManagerInterface7Private9s_versionE@Base 4:5.5.0
 _ZN8KWayland6Server26DataDeviceManagerInterface7PrivateC1EPS1_PNS0_7DisplayE@Base 4:5.1.1+git20141128.0009
 _ZN8KWayland6Server26DataDeviceManagerInterface7PrivateC2EPS1_PNS0_7DisplayE@Base 4:5.1.1+git20141128.0009
 _ZN8KWayland6Server26DataDeviceManagerInterfaceC1EPNS0_7DisplayEP7QObject@Base 4:5.1.1+git20141128.0009
 _ZN8KWayland6Server26DataDeviceManagerInterfaceC2EPNS0_7DisplayEP7QObject@Base 4:5.1.1+git20141128.0009
 _ZN8KWayland6Server26DataDeviceManagerInterfaceD0Ev@Base 4:5.1.1+git20141128.0009
 _ZN8KWayland6Server26DataDeviceManagerInterfaceD1Ev@Base 4:5.1.1+git20141128.0009
 _ZN8KWayland6Server26DataDeviceManagerInterfaceD2Ev@Base 4:5.1.1+git20141128.0009
 _ZN8KWayland6Server26QtExtendedSurfaceInterface11qt_metacallEN11QMetaObject4CallEiPPv@Base 4:5.4.0
 _ZN8KWayland6Server26QtExtendedSurfaceInterface11qt_metacastEPKc@Base 4:5.4.0
 _ZN8KWayland6Server26QtExtendedSurfaceInterface14lowerRequestedEv@Base 4:5.5.0
 _ZN8KWayland6Server26QtExtendedSurfaceInterface14raiseRequestedEv@Base 4:5.5.0
 _ZN8KWayland6Server26QtExtendedSurfaceInterface16staticMetaObjectE@Base 4:5.4.0
 _ZN8KWayland6Server26QtExtendedSurfaceInterface5closeEv@Base 4:5.4.0
 _ZN8KWayland6Server26QtExtendedSurfaceInterface7Private11s_interfaceE@Base 4:5.4.0
 _ZN8KWayland6Server26QtExtendedSurfaceInterface7Private13lowerCallbackEP9wl_clientP11wl_resource@Base 4:5.4.0
 _ZN8KWayland6Server26QtExtendedSurfaceInterface7Private13raiseCallbackEP9wl_clientP11wl_resource@Base 4:5.4.0
 _ZN8KWayland6Server26QtExtendedSurfaceInterface7Private22setWindowFlagsCallbackEP9wl_clientP11wl_resourcei@Base 4:5.4.0
 _ZN8KWayland6Server26QtExtendedSurfaceInterface7Private29updateGenericPropertyCallbackEP9wl_clientP11wl_resourcePKcP8wl_array@Base 4:5.4.0
 _ZN8KWayland6Server26QtExtendedSurfaceInterface7Private33setContentOrientationMaskCallbackEP9wl_clientP11wl_resourcei@Base 4:5.4.0
 _ZN8KWayland6Server26QtExtendedSurfaceInterface7PrivateC1EPS1_PNS0_27QtSurfaceExtensionInterfaceEPNS0_16SurfaceInterfaceEP11wl_resource@Base 4:5.4.0
 _ZN8KWayland6Server26QtExtendedSurfaceInterface7PrivateC2EPS1_PNS0_27QtSurfaceExtensionInterfaceEPNS0_16SurfaceInterfaceEP11wl_resource@Base 4:5.4.0
 _ZN8KWayland6Server26QtExtendedSurfaceInterfaceC1EPNS0_27QtSurfaceExtensionInterfaceEPNS0_16SurfaceInterfaceEP11wl_resource@Base 4:5.4.0
 _ZN8KWayland6Server26QtExtendedSurfaceInterfaceC2EPNS0_27QtSurfaceExtensionInterfaceEPNS0_16SurfaceInterfaceEP11wl_resource@Base 4:5.4.0
 _ZN8KWayland6Server26QtExtendedSurfaceInterfaceD0Ev@Base 4:5.4.0
 _ZN8KWayland6Server26QtExtendedSurfaceInterfaceD1Ev@Base 4:5.4.0
 _ZN8KWayland6Server26QtExtendedSurfaceInterfaceD2Ev@Base 4:5.4.0
 _ZN8KWayland6Server27IdleInhibitManagerInterface11qt_metacallEN11QMetaObject4CallEiPPv@Base 4:5.41.0
 _ZN8KWayland6Server27IdleInhibitManagerInterface11qt_metacastEPKc@Base 4:5.41.0
 _ZN8KWayland6Server27IdleInhibitManagerInterface16staticMetaObjectE@Base 4:5.41.0
 _ZN8KWayland6Server27IdleInhibitManagerInterfaceC1EPNS1_7PrivateEP7QObject@Base 4:5.41.0
 _ZN8KWayland6Server27IdleInhibitManagerInterfaceC2EPNS1_7PrivateEP7QObject@Base 4:5.41.0
 _ZN8KWayland6Server27IdleInhibitManagerInterfaceD0Ev@Base 4:5.41.0
 _ZN8KWayland6Server27IdleInhibitManagerInterfaceD1Ev@Base 4:5.41.0
 _ZN8KWayland6Server27IdleInhibitManagerInterfaceD2Ev@Base 4:5.41.0
 _ZN8KWayland6Server27LinuxDmabufUnstableV1BufferC1EjRK5QSize@Base 4:5.62.0
 _ZN8KWayland6Server27LinuxDmabufUnstableV1BufferC2EjRK5QSize@Base 4:5.62.0
 _ZN8KWayland6Server27PlasmaShellSurfaceInterface11qt_metacallEN11QMetaObject4CallEiPPv@Base 4:5.4.0
 _ZN8KWayland6Server27PlasmaShellSurfaceInterface11qt_metacastEPKc@Base 4:5.4.0
 _ZN8KWayland6Server27PlasmaShellSurfaceInterface11roleChangedEv@Base 4:5.4.0
 _ZN8KWayland6Server27PlasmaShellSurfaceInterface15positionChangedEv@Base 4:5.4.0
 _ZN8KWayland6Server27PlasmaShellSurfaceInterface16staticMetaObjectE@Base 4:5.4.0
 _ZN8KWayland6Server27PlasmaShellSurfaceInterface18skipTaskbarChangedEv@Base 4:5.5.0
 _ZN8KWayland6Server27PlasmaShellSurfaceInterface19hideAutoHidingPanelEv@Base 4:5.28.0
 _ZN8KWayland6Server27PlasmaShellSurfaceInterface19showAutoHidingPanelEv@Base 4:5.28.0
 _ZN8KWayland6Server27PlasmaShellSurfaceInterface19skipSwitcherChangedEv@Base 4:5.47.0
 _ZN8KWayland6Server27PlasmaShellSurfaceInterface20panelBehaviorChangedEv@Base 4:5.4.0
 _ZN8KWayland6Server27PlasmaShellSurfaceInterface22panelTakesFocusChangedEv@Base 4:5.69.0
 _ZN8KWayland6Server27PlasmaShellSurfaceInterface26panelAutoHideHideRequestedEv@Base 4:5.28.0
 _ZN8KWayland6Server27PlasmaShellSurfaceInterface26panelAutoHideShowRequestedEv@Base 4:5.28.0
 _ZN8KWayland6Server27PlasmaShellSurfaceInterface3getEP11wl_resource@Base 4:5.5.0
 _ZN8KWayland6Server27PlasmaShellSurfaceInterface7Private11s_interfaceE@Base 4:5.4.0
 _ZN8KWayland6Server27PlasmaShellSurfaceInterface7Private11setPositionERK6QPoint@Base 4:5.4.0
 _ZN8KWayland6Server27PlasmaShellSurfaceInterface7Private15setRoleCallbackEP9wl_clientP11wl_resourcej@Base 4:5.4.0
 _ZN8KWayland6Server27PlasmaShellSurfaceInterface7Private16setPanelBehaviorE37org_kde_plasma_surface_panel_behavior@Base 4:5.4.0
 _ZN8KWayland6Server27PlasmaShellSurfaceInterface7Private17setOutputCallbackEP9wl_clientP11wl_resourceS6_@Base 4:5.4.0
 _ZN8KWayland6Server27PlasmaShellSurfaceInterface7Private19setPositionCallbackEP9wl_clientP11wl_resourceii@Base 4:5.4.0
 _ZN8KWayland6Server27PlasmaShellSurfaceInterface7Private22setSkipTaskbarCallbackEP9wl_clientP11wl_resourcej@Base 4:5.5.0
 _ZN8KWayland6Server27PlasmaShellSurfaceInterface7Private23panelTakesFocusCallbackEP9wl_clientP11wl_resourcej@Base 4:5.28.0
 _ZN8KWayland6Server27PlasmaShellSurfaceInterface7Private23setSkipSwitcherCallbackEP9wl_clientP11wl_resourcej@Base 4:5.47.0
 _ZN8KWayland6Server27PlasmaShellSurfaceInterface7Private24setPanelBehaviorCallbackEP9wl_clientP11wl_resourcej@Base 4:5.4.0
 _ZN8KWayland6Server27PlasmaShellSurfaceInterface7Private25panelAutoHideHideCallbackEP9wl_clientP11wl_resource@Base 4:5.28.0
 _ZN8KWayland6Server27PlasmaShellSurfaceInterface7Private25panelAutoHideShowCallbackEP9wl_clientP11wl_resource@Base 4:5.28.0
 _ZN8KWayland6Server27PlasmaShellSurfaceInterface7Private7setRoleEj@Base 4:5.4.0
 _ZN8KWayland6Server27PlasmaShellSurfaceInterface7PrivateC1EPS1_PNS0_20PlasmaShellInterfaceEPNS0_16SurfaceInterfaceEP11wl_resource@Base 4:5.4.0
 _ZN8KWayland6Server27PlasmaShellSurfaceInterface7PrivateC2EPS1_PNS0_20PlasmaShellInterfaceEPNS0_16SurfaceInterfaceEP11wl_resource@Base 4:5.4.0
 _ZN8KWayland6Server27PlasmaShellSurfaceInterfaceC1EPNS0_20PlasmaShellInterfaceEPNS0_16SurfaceInterfaceEP11wl_resource@Base 4:5.4.0
 _ZN8KWayland6Server27PlasmaShellSurfaceInterfaceC2EPNS0_20PlasmaShellInterfaceEPNS0_16SurfaceInterfaceEP11wl_resource@Base 4:5.4.0
 _ZN8KWayland6Server27PlasmaShellSurfaceInterfaceD0Ev@Base 4:5.4.0
 _ZN8KWayland6Server27PlasmaShellSurfaceInterfaceD1Ev@Base 4:5.4.0
 _ZN8KWayland6Server27PlasmaShellSurfaceInterfaceD2Ev@Base 4:5.4.0
 _ZN8KWayland6Server27PointerConstraintsInterface11qt_metacallEN11QMetaObject4CallEiPPv@Base 4:5.35.0
 _ZN8KWayland6Server27PointerConstraintsInterface11qt_metacastEPKc@Base 4:5.35.0
 _ZN8KWayland6Server27PointerConstraintsInterface16staticMetaObjectE@Base 4:5.35.0
 _ZN8KWayland6Server27PointerConstraintsInterface7PrivateC1ENS0_34PointerConstraintsInterfaceVersionEPS1_PNS0_7DisplayEPK12wl_interfacej@Base 4:5.35.0
 _ZN8KWayland6Server27PointerConstraintsInterface7PrivateC2ENS0_34PointerConstraintsInterfaceVersionEPS1_PNS0_7DisplayEPK12wl_interfacej@Base 4:5.35.0
 _ZN8KWayland6Server27PointerConstraintsInterfaceC1EPNS1_7PrivateEP7QObject@Base 4:5.35.0
 _ZN8KWayland6Server27PointerConstraintsInterfaceC2EPNS1_7PrivateEP7QObject@Base 4:5.35.0
 _ZN8KWayland6Server27PointerConstraintsInterfaceD0Ev@Base 4:5.35.0
 _ZN8KWayland6Server27PointerConstraintsInterfaceD1Ev@Base 4:5.35.0
 _ZN8KWayland6Server27PointerConstraintsInterfaceD2Ev@Base 4:5.35.0
 _ZN8KWayland6Server27QtSurfaceExtensionInterface11qt_metacallEN11QMetaObject4CallEiPPv@Base 4:5.4.0
 _ZN8KWayland6Server27QtSurfaceExtensionInterface11qt_metacastEPKc@Base 4:5.4.0
 _ZN8KWayland6Server27QtSurfaceExtensionInterface14surfaceCreatedEPNS0_26QtExtendedSurfaceInterfaceE@Base 4:5.4.0
 _ZN8KWayland6Server27QtSurfaceExtensionInterface16staticMetaObjectE@Base 4:5.4.0
 _ZN8KWayland6Server27QtSurfaceExtensionInterface7Private11s_interfaceE@Base 4:5.4.0
 _ZN8KWayland6Server27QtSurfaceExtensionInterface7Private13createSurfaceEP9wl_clientjjPNS0_16SurfaceInterfaceEP11wl_resource@Base 4:5.4.0
 _ZN8KWayland6Server27QtSurfaceExtensionInterface7Private21createSurfaceCallbackEP9wl_clientP11wl_resourcejS6_@Base 4:5.4.0
 _ZN8KWayland6Server27QtSurfaceExtensionInterface7Private4bindEP9wl_clientjj@Base 4:5.4.0
 _ZN8KWayland6Server27QtSurfaceExtensionInterface7Private9s_versionE@Base 4:5.5.0
 _ZN8KWayland6Server27QtSurfaceExtensionInterface7PrivateC1EPS1_PNS0_7DisplayE@Base 4:5.4.0
 _ZN8KWayland6Server27QtSurfaceExtensionInterface7PrivateC2EPS1_PNS0_7DisplayE@Base 4:5.4.0
 _ZN8KWayland6Server27QtSurfaceExtensionInterfaceC1EPNS0_7DisplayEP7QObject@Base 4:5.4.0
 _ZN8KWayland6Server27QtSurfaceExtensionInterfaceC2EPNS0_7DisplayEP7QObject@Base 4:5.4.0
 _ZN8KWayland6Server27QtSurfaceExtensionInterfaceD0Ev@Base 4:5.4.0
 _ZN8KWayland6Server27QtSurfaceExtensionInterfaceD1Ev@Base 4:5.4.0
 _ZN8KWayland6Server27QtSurfaceExtensionInterfaceD2Ev@Base 4:5.4.0
 _ZN8KWayland6Server28EglStreamControllerInterface11qt_metacallEN11QMetaObject4CallEiPPv@Base 4:5.61.0
 _ZN8KWayland6Server28EglStreamControllerInterface11qt_metacastEPKc@Base 4:5.61.0
 _ZN8KWayland6Server28EglStreamControllerInterface16staticMetaObjectE@Base 4:5.61.0
 _ZN8KWayland6Server28EglStreamControllerInterface22streamConsumerAttachedEPNS0_16SurfaceInterfaceEPvP8wl_array@Base 4:5.61.0
 _ZN8KWayland6Server28EglStreamControllerInterface6createEv@Base 4:5.61.0
 _ZN8KWayland6Server28EglStreamControllerInterfaceC1EPNS0_7DisplayEP7QObject@Base 4:5.61.0
 _ZN8KWayland6Server28EglStreamControllerInterfaceC2EPNS0_7DisplayEP7QObject@Base 4:5.61.0
 _ZN8KWayland6Server28EglStreamControllerInterfaceD0Ev@Base 4:5.61.0
 _ZN8KWayland6Server28EglStreamControllerInterfaceD1Ev@Base 4:5.61.0
 _ZN8KWayland6Server28EglStreamControllerInterfaceD2Ev@Base 4:5.61.0
 _ZN8KWayland6Server28OutputConfigurationInterface10setAppliedEv@Base 4:5.5.0
 _ZN8KWayland6Server28OutputConfigurationInterface11qt_metacallEN11QMetaObject4CallEiPPv@Base 4:5.5.0
 _ZN8KWayland6Server28OutputConfigurationInterface11qt_metacastEPKc@Base 4:5.5.0
 _ZN8KWayland6Server28OutputConfigurationInterface16staticMetaObjectE@Base 4:5.5.0
 _ZN8KWayland6Server28OutputConfigurationInterface7Private10sendFailedEv@Base 4:5.5.0
 _ZN8KWayland6Server28OutputConfigurationInterface7Private11s_interfaceE@Base 4:5.5.0
 _ZN8KWayland6Server28OutputConfigurationInterface7Private11sendAppliedEv@Base 4:5.5.0
 _ZN8KWayland6Server28OutputConfigurationInterface7Private11vrrCallbackEP9wl_clientP11wl_resourceS6_j@Base 4:5.83.0
 _ZN8KWayland6Server28OutputConfigurationInterface7Private12modeCallbackEP9wl_clientP11wl_resourceS6_i@Base 4:5.5.0
 _ZN8KWayland6Server28OutputConfigurationInterface7Private13applyCallbackEP9wl_clientP11wl_resource@Base 4:5.5.0
 _ZN8KWayland6Server28OutputConfigurationInterface7Private13scaleCallbackEP9wl_clientP11wl_resourceS6_i@Base 4:5.5.0
 _ZN8KWayland6Server28OutputConfigurationInterface7Private14enableCallbackEP9wl_clientP11wl_resourceS6_i@Base 4:5.5.0
 _ZN8KWayland6Server28OutputConfigurationInterface7Private14pendingChangesEPNS0_21OutputDeviceInterfaceE@Base 4:5.5.0
 _ZN8KWayland6Server28OutputConfigurationInterface7Private14scaleFCallbackEP9wl_clientP11wl_resourceS6_i@Base 4:5.50.0
 _ZN8KWayland6Server28OutputConfigurationInterface7Private16overscanCallbackEP9wl_clientP11wl_resourceS6_j@Base 4:5.83.0
 _ZN8KWayland6Server28OutputConfigurationInterface7Private16positionCallbackEP9wl_clientP11wl_resourceS6_ii@Base 4:5.5.0
 _ZN8KWayland6Server28OutputConfigurationInterface7Private17transformCallbackEP9wl_clientP11wl_resourceS6_i@Base 4:5.5.0
 _ZN8KWayland6Server28OutputConfigurationInterface7Private19clearPendingChangesEv@Base 4:5.5.0
 _ZN8KWayland6Server28OutputConfigurationInterface7Private19colorcurvesCallbackEP9wl_clientP11wl_resourceS6_P8wl_arrayS8_S8_@Base 4:5.50.0
 _ZN8KWayland6Server28OutputConfigurationInterface7PrivateC1EPS1_PNS0_25OutputManagementInterfaceEP11wl_resource@Base 4:5.5.0
 _ZN8KWayland6Server28OutputConfigurationInterface7PrivateC2EPS1_PNS0_25OutputManagementInterfaceEP11wl_resource@Base 4:5.5.0
 _ZN8KWayland6Server28OutputConfigurationInterface7PrivateD0Ev@Base 4:5.5.0
 _ZN8KWayland6Server28OutputConfigurationInterface7PrivateD1Ev@Base 4:5.5.0
 _ZN8KWayland6Server28OutputConfigurationInterface7PrivateD2Ev@Base 4:5.5.0
 _ZN8KWayland6Server28OutputConfigurationInterface9setFailedEv@Base 4:5.5.0
 _ZN8KWayland6Server28OutputConfigurationInterfaceC1EPNS0_25OutputManagementInterfaceEP11wl_resource@Base 4:5.5.0
 _ZN8KWayland6Server28OutputConfigurationInterfaceC2EPNS0_25OutputManagementInterfaceEP11wl_resource@Base 4:5.5.0
 _ZN8KWayland6Server28OutputConfigurationInterfaceD0Ev@Base 4:5.5.0
 _ZN8KWayland6Server28OutputConfigurationInterfaceD1Ev@Base 4:5.5.0
 _ZN8KWayland6Server28OutputConfigurationInterfaceD2Ev@Base 4:5.5.0
 _ZN8KWayland6Server28RemoteAccessManagerInterface11qt_metacallEN11QMetaObject4CallEiPPv@Base 4:5.45.0
 _ZN8KWayland6Server28RemoteAccessManagerInterface11qt_metacastEPKc@Base 4:5.45.0
 _ZN8KWayland6Server28RemoteAccessManagerInterface14bufferReleasedEPKNS0_12BufferHandleE@Base 4:5.45.0
 _ZN8KWayland6Server28RemoteAccessManagerInterface15sendBufferReadyEPKNS0_15OutputInterfaceEPKNS0_12BufferHandleE@Base 4:5.45.0
 _ZN8KWayland6Server28RemoteAccessManagerInterface16staticMetaObjectE@Base 4:5.45.0
 _ZN8KWayland6Server28RemoteAccessManagerInterface7Private11s_interfaceE@Base 4:5.45.0
 _ZN8KWayland6Server28RemoteAccessManagerInterface7Private15releaseCallbackEP9wl_clientP11wl_resource@Base 4:5.45.0
 _ZN8KWayland6Server28RemoteAccessManagerInterface7Private15sendBufferReadyEPKNS0_15OutputInterfaceEPKNS0_12BufferHandleE@Base 4:5.45.0
 _ZN8KWayland6Server28RemoteAccessManagerInterface7Private17getBufferCallbackEP9wl_clientP11wl_resourceji@Base 4:5.45.0
 _ZN8KWayland6Server28RemoteAccessManagerInterface7Private4bindEP9wl_clientjj@Base 4:5.45.0
 _ZN8KWayland6Server28RemoteAccessManagerInterface7Private5unrefERNS0_12BufferHolderE@Base 4:5.45.0
 _ZN8KWayland6Server28RemoteAccessManagerInterface7Private6unbindEP11wl_resource@Base 4:5.45.0
 _ZN8KWayland6Server28RemoteAccessManagerInterface7Private7releaseEP11wl_resource@Base 4:5.45.0
 _ZN8KWayland6Server28RemoteAccessManagerInterface7Private9s_versionE@Base 4:5.45.0
 _ZN8KWayland6Server28RemoteAccessManagerInterface7PrivateC1EPS1_PNS0_7DisplayE@Base 4:5.45.0
 _ZN8KWayland6Server28RemoteAccessManagerInterface7PrivateC2EPS1_PNS0_7DisplayE@Base 4:5.45.0
 _ZN8KWayland6Server28RemoteAccessManagerInterface7PrivateD0Ev@Base 4:5.45.0
 _ZN8KWayland6Server28RemoteAccessManagerInterface7PrivateD1Ev@Base 4:5.45.0
 _ZN8KWayland6Server28RemoteAccessManagerInterface7PrivateD2Ev@Base 4:5.45.0
 _ZN8KWayland6Server28RemoteAccessManagerInterfaceC1EPNS0_7DisplayEP7QObject@Base 4:5.45.0
 _ZN8KWayland6Server28RemoteAccessManagerInterfaceC2EPNS0_7DisplayEP7QObject@Base 4:5.45.0
 _ZN8KWayland6Server29PlasmaVirtualDesktopInterface11qt_metacallEN11QMetaObject4CallEiPPv@Base 4:5.52.0
 _ZN8KWayland6Server29PlasmaVirtualDesktopInterface11qt_metacastEPKc@Base 4:5.52.0
 _ZN8KWayland6Server29PlasmaVirtualDesktopInterface16staticMetaObjectE@Base 4:5.52.0
 _ZN8KWayland6Server29PlasmaVirtualDesktopInterface17activateRequestedEv@Base 4:5.52.0
 _ZN8KWayland6Server29PlasmaVirtualDesktopInterface7setNameERK7QString@Base 4:5.52.0
 _ZN8KWayland6Server29PlasmaVirtualDesktopInterface8sendDoneEv@Base 4:5.52.0
 _ZN8KWayland6Server29PlasmaVirtualDesktopInterface9setActiveEb@Base 4:5.52.0
 _ZN8KWayland6Server29PlasmaVirtualDesktopInterfaceC1EPNS0_39PlasmaVirtualDesktopManagementInterfaceE@Base 4:5.52.0
 _ZN8KWayland6Server29PlasmaVirtualDesktopInterfaceC2EPNS0_39PlasmaVirtualDesktopManagementInterfaceE@Base 4:5.52.0
 _ZN8KWayland6Server29PlasmaVirtualDesktopInterfaceD0Ev@Base 4:5.52.0
 _ZN8KWayland6Server29PlasmaVirtualDesktopInterfaceD1Ev@Base 4:5.52.0
 _ZN8KWayland6Server29PlasmaVirtualDesktopInterfaceD2Ev@Base 4:5.52.0
 _ZN8KWayland6Server29ServerSideDecorationInterface11qt_metacallEN11QMetaObject4CallEiPPv@Base 4:5.6.2
 _ZN8KWayland6Server29ServerSideDecorationInterface11qt_metacastEPKc@Base 4:5.6.2
 _ZN8KWayland6Server29ServerSideDecorationInterface13modeRequestedENS0_36ServerSideDecorationManagerInterface4ModeE@Base 4:5.6.2
 _ZN8KWayland6Server29ServerSideDecorationInterface16staticMetaObjectE@Base 4:5.6.2
 _ZN8KWayland6Server29ServerSideDecorationInterface3getEPNS0_16SurfaceInterfaceE@Base 4:5.6.2
 _ZN8KWayland6Server29ServerSideDecorationInterface7Private11s_interfaceE@Base 4:5.6.2
 _ZN8KWayland6Server29ServerSideDecorationInterface7Private19requestModeCallbackEP9wl_clientP11wl_resourcej@Base 4:5.6.2
 _ZN8KWayland6Server29ServerSideDecorationInterface7Private3getEPNS0_16SurfaceInterfaceE@Base 4:5.6.2
 _ZN8KWayland6Server29ServerSideDecorationInterface7Private5s_allE@Base 4:5.6.2
 _ZN8KWayland6Server29ServerSideDecorationInterface7PrivateC1EPS1_PNS0_36ServerSideDecorationManagerInterfaceEPNS0_16SurfaceInterfaceEP11wl_resource@Base 4:5.6.2
 _ZN8KWayland6Server29ServerSideDecorationInterface7PrivateC2EPS1_PNS0_36ServerSideDecorationManagerInterfaceEPNS0_16SurfaceInterfaceEP11wl_resource@Base 4:5.6.2
 _ZN8KWayland6Server29ServerSideDecorationInterface7PrivateD0Ev@Base 4:5.6.2
 _ZN8KWayland6Server29ServerSideDecorationInterface7PrivateD1Ev@Base 4:5.6.2
 _ZN8KWayland6Server29ServerSideDecorationInterface7PrivateD2Ev@Base 4:5.6.2
 _ZN8KWayland6Server29ServerSideDecorationInterface7setModeENS0_36ServerSideDecorationManagerInterface4ModeE@Base 4:5.6.2
 _ZN8KWayland6Server29ServerSideDecorationInterfaceC1EPNS0_36ServerSideDecorationManagerInterfaceEPNS0_16SurfaceInterfaceEP11wl_resource@Base 4:5.6.2
 _ZN8KWayland6Server29ServerSideDecorationInterfaceC2EPNS0_36ServerSideDecorationManagerInterfaceEPNS0_16SurfaceInterfaceEP11wl_resource@Base 4:5.6.2
 _ZN8KWayland6Server29ServerSideDecorationInterfaceD0Ev@Base 4:5.6.2
 _ZN8KWayland6Server29ServerSideDecorationInterfaceD1Ev@Base 4:5.6.2
 _ZN8KWayland6Server29ServerSideDecorationInterfaceD2Ev@Base 4:5.6.2
 _ZN8KWayland6Server29XdgDecorationManagerInterface11qt_metacallEN11QMetaObject4CallEiPPv@Base 4:5.54.0
 _ZN8KWayland6Server29XdgDecorationManagerInterface11qt_metacastEPKc@Base 4:5.54.0
 _ZN8KWayland6Server29XdgDecorationManagerInterface16staticMetaObjectE@Base 4:5.54.0
 _ZN8KWayland6Server29XdgDecorationManagerInterface29xdgDecorationInterfaceCreatedEPNS0_22XdgDecorationInterfaceE@Base 4:5.54.0
 _ZN8KWayland6Server29XdgDecorationManagerInterface7Private11s_interfaceE@Base 4:5.54.0
 _ZN8KWayland6Server29XdgDecorationManagerInterface7Private15destroyCallbackEP9wl_clientP11wl_resource@Base 4:5.54.0
 _ZN8KWayland6Server29XdgDecorationManagerInterface7Private29getToplevelDecorationCallbackEP9wl_clientP11wl_resourcejS6_@Base 4:5.54.0
 _ZN8KWayland6Server29XdgDecorationManagerInterface7Private4bindEP9wl_clientjj@Base 4:5.54.0
 _ZN8KWayland6Server29XdgDecorationManagerInterface7Private6unbindEP11wl_resource@Base 4:5.54.0
 _ZN8KWayland6Server29XdgDecorationManagerInterface7Private9s_versionE@Base 4:5.54.0
 _ZN8KWayland6Server29XdgDecorationManagerInterface7PrivateC1EPS1_PNS0_17XdgShellInterfaceEPNS0_7DisplayE@Base 4:5.54.0
 _ZN8KWayland6Server29XdgDecorationManagerInterface7PrivateC2EPS1_PNS0_17XdgShellInterfaceEPNS0_7DisplayE@Base 4:5.54.0
 _ZN8KWayland6Server29XdgDecorationManagerInterfaceC1EPNS0_7DisplayEPNS0_17XdgShellInterfaceEP7QObject@Base 4:5.54.0
 _ZN8KWayland6Server29XdgDecorationManagerInterfaceC2EPNS0_7DisplayEPNS0_17XdgShellInterfaceEP7QObject@Base 4:5.54.0
 _ZN8KWayland6Server29XdgDecorationManagerInterfaceD0Ev@Base 4:5.54.0
 _ZN8KWayland6Server29XdgDecorationManagerInterfaceD1Ev@Base 4:5.54.0
 _ZN8KWayland6Server29XdgDecorationManagerInterfaceD2Ev@Base 4:5.54.0
 _ZN8KWayland6Server30LinuxDmabufUnstableV1Interface11qt_metacallEN11QMetaObject4CallEiPPv@Base 4:5.62.0
 _ZN8KWayland6Server30LinuxDmabufUnstableV1Interface11qt_metacastEPKc@Base 4:5.62.0
 _ZN8KWayland6Server30LinuxDmabufUnstableV1Interface16staticMetaObjectE@Base 4:5.62.0
 _ZN8KWayland6Server30LinuxDmabufUnstableV1Interface20bufferImplementationEv@Base 4:5.62.0
 (subst)_ZN8KWayland6Server30LinuxDmabufUnstableV1Interface32setSupportedFormatsWithModifiersE5QHashIj4QSetI{uint64_t}EE@Base 4:5.62.0
 _ZN8KWayland6Server30LinuxDmabufUnstableV1Interface7Private12createParamsEP9wl_clientP11wl_resourcej@Base 4:5.62.0
 _ZN8KWayland6Server30LinuxDmabufUnstableV1Interface7Private16s_implementationE@Base 4:5.62.0
 _ZN8KWayland6Server30LinuxDmabufUnstableV1Interface7Private20createParamsCallbackEP9wl_clientP11wl_resourcej@Base 4:5.62.0
 _ZN8KWayland6Server30LinuxDmabufUnstableV1Interface7Private22s_bufferImplementationE@Base 4:5.62.0
 _ZN8KWayland6Server30LinuxDmabufUnstableV1Interface7Private4bindEP9wl_clientjj@Base 4:5.62.0
 _ZN8KWayland6Server30LinuxDmabufUnstableV1Interface7Private6Params11createImmedEP9wl_clientP11wl_resourcejiijj@Base 4:5.62.0
 _ZN8KWayland6Server30LinuxDmabufUnstableV1Interface7Private6Params11s_interfaceE@Base 4:5.62.0
 _ZN8KWayland6Server30LinuxDmabufUnstableV1Interface7Private6Params3addEP9wl_clientP11wl_resourceijjjjj@Base 4:5.62.0
 (subst)_ZN8KWayland6Server30LinuxDmabufUnstableV1Interface7Private6Params3addEijjj{uint64_t}@Base 4:5.62.0
 _ZN8KWayland6Server30LinuxDmabufUnstableV1Interface7Private6Params6createEP9wl_clientP11wl_resourceiijj@Base 4:5.62.0
 _ZN8KWayland6Server30LinuxDmabufUnstableV1Interface7Private6Params6createEP9wl_clientjRK5QSizejj@Base 4:5.62.0
 _ZN8KWayland6Server30LinuxDmabufUnstableV1Interface7Private6Params7destroyEP9wl_clientP11wl_resource@Base 4:5.62.0
 _ZN8KWayland6Server30LinuxDmabufUnstableV1Interface7Private6ParamsC1EPS2_P9wl_clientjj@Base 4:5.62.0
 _ZN8KWayland6Server30LinuxDmabufUnstableV1Interface7Private6ParamsC2EPS2_P9wl_clientjj@Base 4:5.62.0
 _ZN8KWayland6Server30LinuxDmabufUnstableV1Interface7Private6ParamsD1Ev@Base 4:5.62.0
 _ZN8KWayland6Server30LinuxDmabufUnstableV1Interface7Private6ParamsD2Ev@Base 4:5.62.0
 _ZN8KWayland6Server30LinuxDmabufUnstableV1Interface7Private9s_versionE@Base 4:5.62.0
 _ZN8KWayland6Server30LinuxDmabufUnstableV1Interface7PrivateC1EPS1_PNS0_7DisplayE@Base 4:5.62.0
 _ZN8KWayland6Server30LinuxDmabufUnstableV1Interface7PrivateC2EPS1_PNS0_7DisplayE@Base 4:5.62.0
 _ZN8KWayland6Server30LinuxDmabufUnstableV1Interface7PrivateD0Ev@Base 4:5.62.0
 _ZN8KWayland6Server30LinuxDmabufUnstableV1Interface7PrivateD1Ev@Base 4:5.62.0
 _ZN8KWayland6Server30LinuxDmabufUnstableV1Interface7PrivateD2Ev@Base 4:5.62.0
 _ZN8KWayland6Server30LinuxDmabufUnstableV1Interface7setImplEPNS1_4ImplE@Base 4:5.62.0
 _ZN8KWayland6Server30LinuxDmabufUnstableV1InterfaceC1EPNS0_7DisplayEP7QObject@Base 4:5.62.0
 _ZN8KWayland6Server30LinuxDmabufUnstableV1InterfaceC2EPNS0_7DisplayEP7QObject@Base 4:5.62.0
 _ZN8KWayland6Server30LinuxDmabufUnstableV1InterfaceD0Ev@Base 4:5.62.0
 _ZN8KWayland6Server30LinuxDmabufUnstableV1InterfaceD1Ev@Base 4:5.62.0
 _ZN8KWayland6Server30LinuxDmabufUnstableV1InterfaceD2Ev@Base 4:5.62.0
 _ZN8KWayland6Server31PlasmaWindowManagementInterface11qt_metacallEN11QMetaObject4CallEiPPv@Base 4:5.4.0
 _ZN8KWayland6Server31PlasmaWindowManagementInterface11qt_metacastEPKc@Base 4:5.4.0
 _ZN8KWayland6Server31PlasmaWindowManagementInterface11unmapWindowEPNS0_21PlasmaWindowInterfaceE@Base 4:5.23.0
 _ZN8KWayland6Server31PlasmaWindowManagementInterface12createWindowEP7QObject@Base 4:5.4.0
 _ZN8KWayland6Server31PlasmaWindowManagementInterface16setStackingOrderERK7QVectorIjE@Base 4:5.70.0
 _ZN8KWayland6Server31PlasmaWindowManagementInterface16staticMetaObjectE@Base 4:5.4.0
 _ZN8KWayland6Server31PlasmaWindowManagementInterface22setShowingDesktopStateENS1_19ShowingDesktopStateE@Base 4:5.4.0
 _ZN8KWayland6Server31PlasmaWindowManagementInterface27requestChangeShowingDesktopENS1_19ShowingDesktopStateE@Base 4:5.4.0
 _ZN8KWayland6Server31PlasmaWindowManagementInterface42setPlasmaVirtualDesktopManagementInterfaceEPNS0_39PlasmaVirtualDesktopManagementInterfaceE@Base 4:5.52.0
 _ZN8KWayland6Server31PlasmaWindowManagementInterface7Private11s_interfaceE@Base 4:5.4.0
 _ZN8KWayland6Server31PlasmaWindowManagementInterface7Private17getWindowCallbackEP9wl_clientP11wl_resourcejj@Base 4:5.4.0
 _ZN8KWayland6Server31PlasmaWindowManagementInterface7Private19showDesktopCallbackEP9wl_clientP11wl_resourcej@Base 4:5.4.0
 _ZN8KWayland6Server31PlasmaWindowManagementInterface7Private23getWindowByUuidCallbackEP9wl_clientP11wl_resourcejPKc@Base 4:5.74.0
 _ZN8KWayland6Server31PlasmaWindowManagementInterface7Private23sendShowingDesktopStateEP11wl_resource@Base 4:5.4.0
 _ZN8KWayland6Server31PlasmaWindowManagementInterface7Private23sendShowingDesktopStateEv@Base 4:5.4.0
 _ZN8KWayland6Server31PlasmaWindowManagementInterface7Private24sendStackingOrderChangedEP11wl_resource@Base 4:5.70.0
 _ZN8KWayland6Server31PlasmaWindowManagementInterface7Private24sendStackingOrderChangedEv@Base 4:5.70.0
 _ZN8KWayland6Server31PlasmaWindowManagementInterface7Private4bindEP9wl_clientjj@Base 4:5.4.0
 _ZN8KWayland6Server31PlasmaWindowManagementInterface7Private6unbindEP11wl_resource@Base 4:5.4.0
 _ZN8KWayland6Server31PlasmaWindowManagementInterface7Private9s_versionE@Base 4:5.5.0
 _ZN8KWayland6Server31PlasmaWindowManagementInterface7PrivateC1EPS1_PNS0_7DisplayE@Base 4:5.4.0
 _ZN8KWayland6Server31PlasmaWindowManagementInterface7PrivateC2EPS1_PNS0_7DisplayE@Base 4:5.4.0
 _ZN8KWayland6Server31PlasmaWindowManagementInterfaceC1EPNS0_7DisplayEP7QObject@Base 4:5.4.0
 _ZN8KWayland6Server31PlasmaWindowManagementInterfaceC2EPNS0_7DisplayEP7QObject@Base 4:5.4.0
 _ZN8KWayland6Server31PlasmaWindowManagementInterfaceD0Ev@Base 4:5.4.0
 _ZN8KWayland6Server31PlasmaWindowManagementInterfaceD1Ev@Base 4:5.4.0
 _ZN8KWayland6Server31PlasmaWindowManagementInterfaceD2Ev@Base 4:5.4.0
 _ZN8KWayland6Server31RelativePointerManagerInterface11qt_metacallEN11QMetaObject4CallEiPPv@Base 4:5.28.0
 _ZN8KWayland6Server31RelativePointerManagerInterface11qt_metacastEPKc@Base 4:5.28.0
 _ZN8KWayland6Server31RelativePointerManagerInterface16staticMetaObjectE@Base 4:5.28.0
 _ZN8KWayland6Server31RelativePointerManagerInterface7PrivateC1ENS0_31RelativePointerInterfaceVersionEPS1_PNS0_7DisplayEPK12wl_interfacej@Base 4:5.28.0
 _ZN8KWayland6Server31RelativePointerManagerInterface7PrivateC2ENS0_31RelativePointerInterfaceVersionEPS1_PNS0_7DisplayEPK12wl_interfacej@Base 4:5.28.0
 _ZN8KWayland6Server31RelativePointerManagerInterfaceC1EPNS1_7PrivateEP7QObject@Base 4:5.28.0
 _ZN8KWayland6Server31RelativePointerManagerInterfaceC2EPNS1_7PrivateEP7QObject@Base 4:5.28.0
 _ZN8KWayland6Server31RelativePointerManagerInterfaceD0Ev@Base 4:5.28.0
 _ZN8KWayland6Server31RelativePointerManagerInterfaceD1Ev@Base 4:5.28.0
 _ZN8KWayland6Server31RelativePointerManagerInterfaceD2Ev@Base 4:5.28.0
 _ZN8KWayland6Server36ServerSideDecorationManagerInterface11qt_metacallEN11QMetaObject4CallEiPPv@Base 4:5.6.2
 _ZN8KWayland6Server36ServerSideDecorationManagerInterface11qt_metacastEPKc@Base 4:5.6.2
 _ZN8KWayland6Server36ServerSideDecorationManagerInterface14setDefaultModeENS1_4ModeE@Base 4:5.6.2
 _ZN8KWayland6Server36ServerSideDecorationManagerInterface16staticMetaObjectE@Base 4:5.6.2
 _ZN8KWayland6Server36ServerSideDecorationManagerInterface17decorationCreatedEPNS0_29ServerSideDecorationInterfaceE@Base 4:5.6.2
 _ZN8KWayland6Server36ServerSideDecorationManagerInterface7Private11s_interfaceE@Base 4:5.6.2
 _ZN8KWayland6Server36ServerSideDecorationManagerInterface7Private14createCallbackEP9wl_clientP11wl_resourcejS6_@Base 4:5.6.2
 _ZN8KWayland6Server36ServerSideDecorationManagerInterface7Private4bindEP9wl_clientjj@Base 4:5.6.2
 _ZN8KWayland6Server36ServerSideDecorationManagerInterface7Private6createEP9wl_clientP11wl_resourcejS6_@Base 4:5.6.2
 _ZN8KWayland6Server36ServerSideDecorationManagerInterface7Private6unbindEP11wl_resource@Base 4:5.6.2
 _ZN8KWayland6Server36ServerSideDecorationManagerInterface7Private9s_versionE@Base 4:5.6.2
 _ZN8KWayland6Server36ServerSideDecorationManagerInterface7PrivateC1EPS1_PNS0_7DisplayE@Base 4:5.6.2
 _ZN8KWayland6Server36ServerSideDecorationManagerInterface7PrivateC2EPS1_PNS0_7DisplayE@Base 4:5.6.2
 _ZN8KWayland6Server36ServerSideDecorationManagerInterfaceC1EPNS0_7DisplayEP7QObject@Base 4:5.6.2
 _ZN8KWayland6Server36ServerSideDecorationManagerInterfaceC2EPNS0_7DisplayEP7QObject@Base 4:5.6.2
 _ZN8KWayland6Server36ServerSideDecorationManagerInterfaceD0Ev@Base 4:5.6.2
 _ZN8KWayland6Server36ServerSideDecorationManagerInterfaceD1Ev@Base 4:5.6.2
 _ZN8KWayland6Server36ServerSideDecorationManagerInterfaceD2Ev@Base 4:5.6.2
 _ZN8KWayland6Server36ServerSideDecorationPaletteInterface11qt_metacallEN11QMetaObject4CallEiPPv@Base 4:5.42.0
 _ZN8KWayland6Server36ServerSideDecorationPaletteInterface11qt_metacastEPKc@Base 4:5.42.0
 _ZN8KWayland6Server36ServerSideDecorationPaletteInterface14paletteChangedERK7QString@Base 4:5.42.0
 _ZN8KWayland6Server36ServerSideDecorationPaletteInterface16staticMetaObjectE@Base 4:5.42.0
 _ZN8KWayland6Server36ServerSideDecorationPaletteInterface7Private11s_interfaceE@Base 4:5.42.0
 _ZN8KWayland6Server36ServerSideDecorationPaletteInterface7Private18setPaletteCallbackEP9wl_clientP11wl_resourcePKc@Base 4:5.42.0
 _ZN8KWayland6Server36ServerSideDecorationPaletteInterface7PrivateC1EPS1_PNS0_43ServerSideDecorationPaletteManagerInterfaceEPNS0_16SurfaceInterfaceEP11wl_resource@Base 4:5.42.0
 _ZN8KWayland6Server36ServerSideDecorationPaletteInterface7PrivateC2EPS1_PNS0_43ServerSideDecorationPaletteManagerInterfaceEPNS0_16SurfaceInterfaceEP11wl_resource@Base 4:5.42.0
 _ZN8KWayland6Server36ServerSideDecorationPaletteInterface7PrivateD0Ev@Base 4:5.42.0
 _ZN8KWayland6Server36ServerSideDecorationPaletteInterface7PrivateD1Ev@Base 4:5.42.0
 _ZN8KWayland6Server36ServerSideDecorationPaletteInterface7PrivateD2Ev@Base 4:5.42.0
 _ZN8KWayland6Server36ServerSideDecorationPaletteInterfaceC1EPNS0_43ServerSideDecorationPaletteManagerInterfaceEPNS0_16SurfaceInterfaceEP11wl_resource@Base 4:5.42.0
 _ZN8KWayland6Server36ServerSideDecorationPaletteInterfaceC2EPNS0_43ServerSideDecorationPaletteManagerInterfaceEPNS0_16SurfaceInterfaceEP11wl_resource@Base 4:5.42.0
 _ZN8KWayland6Server36ServerSideDecorationPaletteInterfaceD0Ev@Base 4:5.42.0
 _ZN8KWayland6Server36ServerSideDecorationPaletteInterfaceD1Ev@Base 4:5.42.0
 _ZN8KWayland6Server36ServerSideDecorationPaletteInterfaceD2Ev@Base 4:5.42.0
 _ZN8KWayland6Server39PlasmaVirtualDesktopManagementInterface11qt_metacallEN11QMetaObject4CallEiPPv@Base 4:5.52.0
 _ZN8KWayland6Server39PlasmaVirtualDesktopManagementInterface11qt_metacastEPKc@Base 4:5.52.0
 _ZN8KWayland6Server39PlasmaVirtualDesktopManagementInterface13createDesktopERK7QStringj@Base 4:5.52.0
 _ZN8KWayland6Server39PlasmaVirtualDesktopManagementInterface13removeDesktopERK7QString@Base 4:5.52.0
 _ZN8KWayland6Server39PlasmaVirtualDesktopManagementInterface16desktopActivatedERK7QString@Base 4:5.52.0
 _ZN8KWayland6Server39PlasmaVirtualDesktopManagementInterface16staticMetaObjectE@Base 4:5.52.0
 _ZN8KWayland6Server39PlasmaVirtualDesktopManagementInterface22desktopCreateRequestedERK7QStringj@Base 4:5.52.0
 _ZN8KWayland6Server39PlasmaVirtualDesktopManagementInterface22desktopRemoveRequestedERK7QString@Base 4:5.52.0
 _ZN8KWayland6Server39PlasmaVirtualDesktopManagementInterface7desktopERK7QString@Base 4:5.52.0
 _ZN8KWayland6Server39PlasmaVirtualDesktopManagementInterface7setRowsEj@Base 4:5.61.0
 _ZN8KWayland6Server39PlasmaVirtualDesktopManagementInterface8sendDoneEv@Base 4:5.52.0
 _ZN8KWayland6Server39PlasmaVirtualDesktopManagementInterfaceC1EPNS0_7DisplayEP7QObject@Base 4:5.52.0
 _ZN8KWayland6Server39PlasmaVirtualDesktopManagementInterfaceC2EPNS0_7DisplayEP7QObject@Base 4:5.52.0
 _ZN8KWayland6Server39PlasmaVirtualDesktopManagementInterfaceD0Ev@Base 4:5.52.0
 _ZN8KWayland6Server39PlasmaVirtualDesktopManagementInterfaceD1Ev@Base 4:5.52.0
 _ZN8KWayland6Server39PlasmaVirtualDesktopManagementInterfaceD2Ev@Base 4:5.52.0
 _ZN8KWayland6Server43ServerSideDecorationPaletteManagerInterface11qt_metacallEN11QMetaObject4CallEiPPv@Base 4:5.42.0
 _ZN8KWayland6Server43ServerSideDecorationPaletteManagerInterface11qt_metacastEPKc@Base 4:5.42.0
 _ZN8KWayland6Server43ServerSideDecorationPaletteManagerInterface14paletteCreatedEPNS0_36ServerSideDecorationPaletteInterfaceE@Base 4:5.42.0
 _ZN8KWayland6Server43ServerSideDecorationPaletteManagerInterface16staticMetaObjectE@Base 4:5.42.0
 _ZN8KWayland6Server43ServerSideDecorationPaletteManagerInterface17paletteForSurfaceEPNS0_16SurfaceInterfaceE@Base 4:5.42.0
 _ZN8KWayland6Server43ServerSideDecorationPaletteManagerInterface7Private11s_interfaceE@Base 4:5.42.0
 _ZN8KWayland6Server43ServerSideDecorationPaletteManagerInterface7Private14createCallbackEP9wl_clientP11wl_resourcejS6_@Base 4:5.42.0
 _ZN8KWayland6Server43ServerSideDecorationPaletteManagerInterface7Private4bindEP9wl_clientjj@Base 4:5.42.0
 _ZN8KWayland6Server43ServerSideDecorationPaletteManagerInterface7Private6unbindEP11wl_resource@Base 4:5.42.0
 _ZN8KWayland6Server43ServerSideDecorationPaletteManagerInterface7Private9s_versionE@Base 4:5.42.0
 _ZN8KWayland6Server43ServerSideDecorationPaletteManagerInterface7PrivateC1EPS1_PNS0_7DisplayE@Base 4:5.42.0
 _ZN8KWayland6Server43ServerSideDecorationPaletteManagerInterface7PrivateC2EPS1_PNS0_7DisplayE@Base 4:5.42.0
 _ZN8KWayland6Server43ServerSideDecorationPaletteManagerInterfaceC1EPNS0_7DisplayEP7QObject@Base 4:5.42.0
 _ZN8KWayland6Server43ServerSideDecorationPaletteManagerInterfaceC2EPNS0_7DisplayEP7QObject@Base 4:5.42.0
 _ZN8KWayland6Server43ServerSideDecorationPaletteManagerInterfaceD0Ev@Base 4:5.42.0
 _ZN8KWayland6Server43ServerSideDecorationPaletteManagerInterfaceD1Ev@Base 4:5.42.0
 _ZN8KWayland6Server43ServerSideDecorationPaletteManagerInterfaceD2Ev@Base 4:5.42.0
 _ZN8KWayland6Server6Cursor11qt_metacallEN11QMetaObject4CallEiPPv@Base 4:5.2.1+git20150228.0043+15.04
 _ZN8KWayland6Server6Cursor11qt_metacastEPKc@Base 4:5.2.1+git20150228.0043+15.04
 _ZN8KWayland6Server6Cursor14hotspotChangedEv@Base 4:5.2.1+git20150228.0043+15.04
 _ZN8KWayland6Server6Cursor14surfaceChangedEv@Base 4:5.2.1+git20150228.0043+15.04
 _ZN8KWayland6Server6Cursor16staticMetaObjectE@Base 4:5.2.1+git20150228.0043+15.04
 _ZN8KWayland6Server6Cursor20enteredSerialChangedEv@Base 4:5.2.1+git20150228.0043+15.04
 _ZN8KWayland6Server6Cursor7Private6updateERK8QPointerINS0_16SurfaceInterfaceEEjRK6QPoint@Base 4:5.2.1+git20150228.0043+15.04
 _ZN8KWayland6Server6Cursor7PrivateC1EPS1_PNS0_16PointerInterfaceE@Base 4:5.2.1+git20150228.0043+15.04
 _ZN8KWayland6Server6Cursor7PrivateC2EPS1_PNS0_16PointerInterfaceE@Base 4:5.2.1+git20150228.0043+15.04
 _ZN8KWayland6Server6Cursor7changedEv@Base 4:5.2.1+git20150228.0043+15.04
 _ZN8KWayland6Server6CursorC1EPNS0_16PointerInterfaceE@Base 4:5.2.1+git20150228.0043+15.04
 _ZN8KWayland6Server6CursorC2EPNS0_16PointerInterfaceE@Base 4:5.2.1+git20150228.0043+15.04
 _ZN8KWayland6Server6CursorD0Ev@Base 4:5.2.1+git20150228.0043+15.04
 _ZN8KWayland6Server6CursorD1Ev@Base 4:5.2.1+git20150228.0043+15.04
 _ZN8KWayland6Server6CursorD2Ev@Base 4:5.2.1+git20150228.0043+15.04
 _ZN8KWayland6Server6Global11qt_metacallEN11QMetaObject4CallEiPPv@Base 4:5.1.1+git20141128.0009
 _ZN8KWayland6Server6Global11qt_metacastEPKc@Base 4:5.1.1+git20141128.0009
 _ZN8KWayland6Server6Global16staticMetaObjectE@Base 4:5.1.1+git20141128.0009
 _ZN8KWayland6Server6Global20aboutToDestroyGlobalEv@Base 4:5.41.0
 _ZN8KWayland6Server6Global6createEv@Base 4:5.1.1+git20141128.0009
 _ZN8KWayland6Server6Global7Private4bindEP9wl_clientPvjj@Base 4:5.1.1+git20141128.0009
 _ZN8KWayland6Server6Global7Private6createEv@Base 4:5.1.1+git20141128.0009
 _ZN8KWayland6Server6Global7PrivateC1EPNS0_7DisplayEPK12wl_interfacej@Base 4:5.1.1+git20141128.0009
 _ZN8KWayland6Server6Global7PrivateC2EPNS0_7DisplayEPK12wl_interfacej@Base 4:5.1.1+git20141128.0009
 _ZN8KWayland6Server6Global7PrivateD0Ev@Base 4:5.1.1+git20141128.0009
 _ZN8KWayland6Server6Global7PrivateD1Ev@Base 4:5.1.1+git20141128.0009
 _ZN8KWayland6Server6Global7PrivateD2Ev@Base 4:5.1.1+git20141128.0009
 _ZN8KWayland6Server6Global7destroyEv@Base 4:5.1.1+git20141128.0009
 _ZN8KWayland6Server6Global7displayEv@Base 4:5.1.1+git20141128.0009
 _ZN8KWayland6Server6GlobalC1EPNS1_7PrivateEP7QObject@Base 4:5.1.1+git20141128.0009
 _ZN8KWayland6Server6GlobalC2EPNS1_7PrivateEP7QObject@Base 4:5.1.1+git20141128.0009
 _ZN8KWayland6Server6GlobalD0Ev@Base 4:5.1.1+git20141128.0009
 _ZN8KWayland6Server6GlobalD1Ev@Base 4:5.1.1+git20141128.0009
 _ZN8KWayland6Server6GlobalD2Ev@Base 4:5.1.1+git20141128.0009
 _ZN8KWayland6Server6GlobalcvP9wl_globalEv@Base 4:5.1.1+git20141128.0009
 _ZN8KWayland6Server7Display10createIdleEP7QObject@Base 4:5.4.0
 _ZN8KWayland6Server7Display10createSeatEP7QObject@Base 4:5.1.1+git20141128.0009
 _ZN8KWayland6Server7Display10nextSerialEv@Base 4:5.1.1+git20141128.0009
 _ZN8KWayland6Server7Display11createShellEP7QObject@Base 4:5.1.1+git20141128.0009
 _ZN8KWayland6Server7Display11qt_metacallEN11QMetaObject4CallEiPPv@Base 4:5.1.1+git20141128.0009
 _ZN8KWayland6Server7Display11qt_metacastEPKc@Base 4:5.1.1+git20141128.0009
 _ZN8KWayland6Server7Display12createClientEi@Base 4:5.1.1+git20141128.0009
 _ZN8KWayland6Server7Display12createOutputEP7QObject@Base 4:5.1.1+git20141128.0009
 _ZN8KWayland6Server7Display12removeOutputEPNS0_15OutputInterfaceE@Base 4:5.1.1+git20141128.0009
 _ZN8KWayland6Server7Display13getConnectionEP9wl_client@Base 4:5.1.1+git20141128.0009
 _ZN8KWayland6Server7Display13setEglDisplayEPv@Base 4:5.2.1+git20150304.0028+15.04
 _ZN8KWayland6Server7Display13setSocketNameERK7QString@Base 4:5.1.1+git20141128.0009
 _ZN8KWayland6Server7Display14createXdgShellERKNS0_24XdgShellInterfaceVersionEP7QObject@Base 4:5.25.0
 _ZN8KWayland6Server7Display14dispatchEventsEi@Base 4:5.1.1+git20141128.0009
 _ZN8KWayland6Server7Display14runningChangedEb@Base 4:5.1.1+git20141128.0009
 _ZN8KWayland6Server7Display15clientConnectedEPNS0_16ClientConnectionE@Base 4:5.1.1+git20141128.0009
 _ZN8KWayland6Server7Display15createFakeInputEP7QObject@Base 4:5.4.0
 _ZN8KWayland6Server7Display16aboutToTerminateEv@Base 4:5.1.1+git20141128.0009
 _ZN8KWayland6Server7Display16createCompositorEP7QObject@Base 4:5.1.1+git20141128.0009
 _ZN8KWayland6Server7Display16staticMetaObjectE@Base 4:5.1.1+git20141128.0009
 _ZN8KWayland6Server7Display17createBlurManagerEP7QObject@Base 4:5.5.0
 _ZN8KWayland6Server7Display17createDpmsManagerEP7QObject@Base 4:5.5.0
 _ZN8KWayland6Server7Display17createPlasmaShellEP7QObject@Base 4:5.4.0
 _ZN8KWayland6Server7Display17socketNameChangedERK7QString@Base 4:5.1.1+git20141128.0009
 _ZN8KWayland6Server7Display18clientDisconnectedEPNS0_16ClientConnectionE@Base 4:5.1.1+git20141128.0009
 _ZN8KWayland6Server7Display18createOutputDeviceEP7QObject@Base 4:5.5.0
 _ZN8KWayland6Server7Display18createSlideManagerEP7QObject@Base 4:5.5.0
 _ZN8KWayland6Server7Display18removeOutputDeviceEPNS0_21OutputDeviceInterfaceE@Base 4:5.5.0
 _ZN8KWayland6Server7Display19createShadowManagerEP7QObject@Base 4:5.4.0
 _ZN8KWayland6Server7Display19createSubCompositorEP7QObject@Base 4:5.1.1+git20141128.0009
 _ZN8KWayland6Server7Display21createContrastManagerEP7QObject@Base 4:5.5.0
 _ZN8KWayland6Server7Display21createPointerGesturesERKNS0_31PointerGesturesInterfaceVersionEP7QObject@Base 4:5.35.0
 _ZN8KWayland6Server7Display22createOutputManagementEP7QObject@Base 4:5.5.0
 _ZN8KWayland6Server7Display22createTextInputManagerERKNS0_25TextInputInterfaceVersionEP7QObject@Base 4:5.23.0
 _ZN8KWayland6Server7Display22createXdgOutputManagerEP7QObject@Base 4:5.47.0
 _ZN8KWayland6Server7Display23createDataDeviceManagerEP7QObject@Base 4:5.1.1+git20141128.0009
 _ZN8KWayland6Server7Display23createKeyStateInterfaceEP7QObject@Base 4:5.61.0
 _ZN8KWayland6Server7Display24createIdleInhibitManagerERKNS0_34IdleInhibitManagerInterfaceVersionEP7QObject@Base 4:5.41.0
 _ZN8KWayland6Server7Display24createPointerConstraintsERKNS0_34PointerConstraintsInterfaceVersionEP7QObject@Base 4:5.35.0
 _ZN8KWayland6Server7Display24createQtSurfaceExtensionEP7QObject@Base 4:5.4.0
 _ZN8KWayland6Server7Display24setAutomaticSocketNamingEb@Base 4:5.61.0
 _ZN8KWayland6Server7Display25createRemoteAccessManagerEP7QObject@Base 4:5.45.0
 _ZN8KWayland6Server7Display25createXdgForeignInterfaceEP7QObject@Base 4:5.41.0
 _ZN8KWayland6Server7Display26createLinuxDmabufInterfaceEP7QObject@Base 4:5.62.0
 _ZN8KWayland6Server7Display26createXdgDecorationManagerEPNS0_17XdgShellInterfaceEP7QObject@Base 4:5.54.0
 _ZN8KWayland6Server7Display28automaticSocketNamingChangedEb@Base 4:5.61.0
 _ZN8KWayland6Server7Display28createPlasmaWindowManagementEP7QObject@Base 4:5.4.0
 _ZN8KWayland6Server7Display28createRelativePointerManagerERKNS0_31RelativePointerInterfaceVersionEP7QObject@Base 4:5.28.0
 _ZN8KWayland6Server7Display28createTabletManagerInterfaceEP7QObject@Base 4:5.69.0
 _ZN8KWayland6Server7Display29createAppMenuManagerInterfaceEP7QObject@Base 4:5.42.0
 _ZN8KWayland6Server7Display33createServerSideDecorationManagerEP7QObject@Base 4:5.6.2
 _ZN8KWayland6Server7Display34createEglStreamControllerInterfaceEP7QObject@Base 4:5.61.0
 _ZN8KWayland6Server7Display36createPlasmaVirtualDesktopManagementEP7QObject@Base 4:5.52.0
 _ZN8KWayland6Server7Display40createServerSideDecorationPaletteManagerEP7QObject@Base 4:5.42.0
 _ZN8KWayland6Server7Display5startENS1_9StartModeE@Base 4:5.1.1+git20141128.0009
 _ZN8KWayland6Server7Display6serialEv@Base 4:5.1.1+git20141128.0009
 _ZN8KWayland6Server7Display7Private10setRunningEb@Base 4:5.1.1+git20141128.0009
 _ZN8KWayland6Server7Display7Private21installSocketNotifierEv@Base 4:5.1.1+git20141128.0009
 _ZN8KWayland6Server7Display7Private5flushEv@Base 4:5.1.1+git20141128.0009
 (optional=gccinternal)_ZN8KWayland6Server7Display7Private8dispatchEv@Base 4:5.2.2+git20150422.0117+15.04
 _ZN8KWayland6Server7Display7PrivateC1EPS1_@Base 4:5.1.1+git20141128.0009
 _ZN8KWayland6Server7Display7PrivateC2EPS1_@Base 4:5.1.1+git20141128.0009
 _ZN8KWayland6Server7Display9createShmEv@Base 4:5.1.1+git20141128.0009
 _ZN8KWayland6Server7Display9startLoopEv@Base 4:5.1.1+git20141128.0009
 _ZN8KWayland6Server7Display9terminateEv@Base 4:5.1.1+git20141128.0009
 _ZN8KWayland6Server7DisplayC1EP7QObject@Base 4:5.1.1+git20141128.0009
 _ZN8KWayland6Server7DisplayC2EP7QObject@Base 4:5.1.1+git20141128.0009
 _ZN8KWayland6Server7DisplayD0Ev@Base 4:5.1.1+git20141128.0009
 _ZN8KWayland6Server7DisplayD1Ev@Base 4:5.1.1+git20141128.0009
 _ZN8KWayland6Server7DisplayD2Ev@Base 4:5.1.1+git20141128.0009
 _ZN8KWayland6Server7DisplaycvP10wl_displayEv@Base 4:5.1.1+git20141128.0009
 _ZN8KWayland6Server8Resource11qt_metacallEN11QMetaObject4CallEiPPv@Base 4:5.1.1+git20141128.0009
 _ZN8KWayland6Server8Resource11qt_metacastEPKc@Base 4:5.1.1+git20141128.0009
 _ZN8KWayland6Server8Resource16aboutToBeUnboundEv@Base 4:5.37.0
 _ZN8KWayland6Server8Resource16staticMetaObjectE@Base 4:5.1.1+git20141128.0009
 _ZN8KWayland6Server8Resource6clientEv@Base 4:5.1.1+git20141128.0009
 _ZN8KWayland6Server8Resource6createEPNS0_16ClientConnectionEjj@Base 4:5.1.1+git20141128.0009
 _ZN8KWayland6Server8Resource6globalEv@Base 4:5.1.1+git20141128.0009
 _ZN8KWayland6Server8Resource7Private14s_allResourcesE@Base 4:5.1.1+git20141128.0009
 _ZN8KWayland6Server8Resource7Private25resourceDestroyedCallbackEP9wl_clientP11wl_resource@Base 4:5.23.0
 _ZN8KWayland6Server8Resource7Private6createEPNS0_16ClientConnectionEjj@Base 4:5.1.1+git20141128.0009
 _ZN8KWayland6Server8Resource7Private6unbindEP11wl_resource@Base 4:5.1.1+git20141128.0009
 _ZN8KWayland6Server8Resource7PrivateC1EPS1_PNS0_6GlobalEP11wl_resourcePK12wl_interfacePKv@Base 4:5.1.1+git20141128.0009
 _ZN8KWayland6Server8Resource7PrivateC2EPS1_PNS0_6GlobalEP11wl_resourcePK12wl_interfacePKv@Base 4:5.1.1+git20141128.0009
 _ZN8KWayland6Server8Resource7PrivateD0Ev@Base 4:5.1.1+git20141128.0009
 _ZN8KWayland6Server8Resource7PrivateD1Ev@Base 4:5.1.1+git20141128.0009
 _ZN8KWayland6Server8Resource7PrivateD2Ev@Base 4:5.1.1+git20141128.0009
 _ZN8KWayland6Server8Resource7unboundEv@Base 4:5.24.0
 _ZN8KWayland6Server8Resource8resourceEv@Base 4:5.1.1+git20141128.0009
 _ZN8KWayland6Server8ResourceC1EPNS1_7PrivateEP7QObject@Base 4:5.1.1+git20141128.0009
 _ZN8KWayland6Server8ResourceC2EPNS1_7PrivateEP7QObject@Base 4:5.1.1+git20141128.0009
 _ZN8KWayland6Server8ResourceD0Ev@Base 4:5.1.1+git20141128.0009
 _ZN8KWayland6Server8ResourceD1Ev@Base 4:5.1.1+git20141128.0009
 _ZN8KWayland6Server8ResourceD2Ev@Base 4:5.1.1+git20141128.0009
 _ZNK8KWayland6Server12BufferHandle2fdEv@Base 4:5.45.0
 _ZNK8KWayland6Server12BufferHandle5widthEv@Base 4:5.45.0
 _ZNK8KWayland6Server12BufferHandle6formatEv@Base 4:5.45.0
 _ZNK8KWayland6Server12BufferHandle6heightEv@Base 4:5.45.0
 _ZNK8KWayland6Server12BufferHandle6strideEv@Base 4:5.45.0
 _ZNK8KWayland6Server12TabletCursor10metaObjectEv@Base 4:5.69.0
 _ZNK8KWayland6Server12TabletCursor13enteredSerialEv@Base 4:5.69.0
 _ZNK8KWayland6Server12TabletCursor7hotspotEv@Base 4:5.69.0
 _ZNK8KWayland6Server12TabletCursor7surfaceEv@Base 4:5.69.0
 _ZNK8KWayland6Server13BlurInterface10metaObjectEv@Base 4:5.5.0
 _ZNK8KWayland6Server13BlurInterface6d_funcEv@Base 4:5.5.0
 _ZNK8KWayland6Server13IdleInterface10metaObjectEv@Base 4:5.4.0
 _ZNK8KWayland6Server13IdleInterface11isInhibitedEv@Base 4:5.41.0
 _ZNK8KWayland6Server13IdleInterface6d_funcEv@Base 4:5.41.0
 _ZNK8KWayland6Server13SeatInterface10dragSourceEv@Base 4:5.6.2
 _ZNK8KWayland6Server13SeatInterface10hasPointerEv@Base 4:5.1.1+git20141128.0009
 _ZNK8KWayland6Server13SeatInterface10keymapSizeEv@Base 4:5.1.1+git20141128.0009
 _ZNK8KWayland6Server13SeatInterface10metaObjectEv@Base 4:5.1.1+git20141128.0009
 _ZNK8KWayland6Server13SeatInterface10pointerPosEv@Base 4:5.1.1+git20141128.0009
 _ZNK8KWayland6Server13SeatInterface11dragPointerEv@Base 4:5.6.2
 _ZNK8KWayland6Server13SeatInterface11dragSurfaceEv@Base 4:5.6.2
 _ZNK8KWayland6Server13SeatInterface11hasKeyboardEv@Base 4:5.1.1+git20141128.0009
 _ZNK8KWayland6Server13SeatInterface11isDragTouchEv@Base 4:5.6.2
 _ZNK8KWayland6Server13SeatInterface11pressedKeysEv@Base 4:5.1.1+git20141128.0009
 _ZNK8KWayland6Server13SeatInterface12focusedTouchEv@Base 4:5.2.2+git20150326.0109+15.04
 _ZNK8KWayland6Server13SeatInterface13isDragPointerEv@Base 4:5.6.2
 _ZNK8KWayland6Server13SeatInterface13keyRepeatRateEv@Base 4:5.5.0
 _ZNK8KWayland6Server13SeatInterface14focusedPointerEv@Base 4:5.1.1+git20141128.0009
 _ZNK8KWayland6Server13SeatInterface14groupModifiersEv@Base 4:5.1.1+git20141128.0009
 _ZNK8KWayland6Server13SeatInterface14keyRepeatDelayEv@Base 4:5.5.0
 _ZNK8KWayland6Server13SeatInterface15focusedKeyboardEv@Base 4:5.1.1+git20141128.0009
 _ZNK8KWayland6Server13SeatInterface15isTouchSequenceEv@Base 4:5.2.2+git20150326.0109+15.04
 _ZNK8KWayland6Server13SeatInterface15lockedModifiersEv@Base 4:5.1.1+git20141128.0009
 _ZNK8KWayland6Server13SeatInterface16focusedTextInputEv@Base 4:5.23.0
 _ZNK8KWayland6Server13SeatInterface16latchedModifiersEv@Base 4:5.1.1+git20141128.0009
 _ZNK8KWayland6Server13SeatInterface18depressedModifiersEv@Base 4:5.1.1+git20141128.0009
 _ZNK8KWayland6Server13SeatInterface19focusedTouchSurfaceEv@Base 4:5.2.2+git20150326.0109+15.04
 _ZNK8KWayland6Server13SeatInterface19lastModifiersSerialEv@Base 4:5.1.1+git20141128.0009
 _ZNK8KWayland6Server13SeatInterface19pointerButtonSerialEN2Qt11MouseButtonE@Base 4:5.1.1+git20141128.0009
 _ZNK8KWayland6Server13SeatInterface19pointerButtonSerialEj@Base 4:5.1.1+git20141128.0009
 _ZNK8KWayland6Server13SeatInterface20hasImplicitTouchGrabEj@Base 4:5.54.0
 _ZNK8KWayland6Server13SeatInterface20keymapFileDescriptorEv@Base 4:5.1.1+git20141128.0009
 _ZNK8KWayland6Server13SeatInterface21focusedPointerSurfaceEv@Base 4:5.1.1+git20141128.0009
 _ZNK8KWayland6Server13SeatInterface21isKeymapXkbCompatibleEv@Base 4:5.1.1+git20141128.0009
 _ZNK8KWayland6Server13SeatInterface22focusedKeyboardSurfaceEv@Base 4:5.1.1+git20141128.0009
 _ZNK8KWayland6Server13SeatInterface22hasImplicitPointerGrabEj@Base 4:5.6.2
 _ZNK8KWayland6Server13SeatInterface22isPointerButtonPressedEN2Qt11MouseButtonE@Base 4:5.1.1+git20141128.0009
 _ZNK8KWayland6Server13SeatInterface22isPointerButtonPressedEj@Base 4:5.1.1+git20141128.0009
 _ZNK8KWayland6Server13SeatInterface23focusedTextInputSurfaceEv@Base 4:5.23.0
 _ZNK8KWayland6Server13SeatInterface25dragSurfaceTransformationEv@Base 4:5.6.2
 _ZNK8KWayland6Server13SeatInterface27focusedTouchSurfacePositionEv@Base 4:5.2.2+git20150326.0109+15.04
 _ZNK8KWayland6Server13SeatInterface29focusedPointerSurfacePositionEv@Base 4:5.1.1+git20141128.0009
 _ZNK8KWayland6Server13SeatInterface35focusedPointerSurfaceTransformationEv@Base 4:5.6.2
 _ZNK8KWayland6Server13SeatInterface4nameEv@Base 4:5.1.1+git20141128.0009
 _ZNK8KWayland6Server13SeatInterface6d_funcEv@Base 4:5.1.1+git20141128.0009
 _ZNK8KWayland6Server13SeatInterface6isDragEv@Base 4:5.6.2
 _ZNK8KWayland6Server13SeatInterface7Private16touchsForSurfaceEPNS0_16SurfaceInterfaceE@Base 4:5.54.0
 _ZNK8KWayland6Server13SeatInterface7Private18pointersForSurfaceEPNS0_16SurfaceInterfaceE@Base 4:5.28.0
 _ZNK8KWayland6Server13SeatInterface7Private19keyboardsForSurfaceEPNS0_16SurfaceInterfaceE@Base 4:5.28.0
 _ZNK8KWayland6Server13SeatInterface7Private19textInputForSurfaceEPNS0_16SurfaceInterfaceE@Base 4:5.23.0
 _ZNK8KWayland6Server13SeatInterface7Private20dataDeviceForSurfaceEPNS0_16SurfaceInterfaceE@Base 4:5.1.1+git20141128.0009
 _ZNK8KWayland6Server13SeatInterface8hasTouchEv@Base 4:5.1.1+git20141128.0009
 _ZNK8KWayland6Server13SeatInterface9selectionEv@Base 4:5.24.0
 _ZNK8KWayland6Server13SeatInterface9timestampEv@Base 4:5.1.1+git20141128.0009
 _ZNK8KWayland6Server14ShellInterface10metaObjectEv@Base 4:5.1.1+git20141128.0009
 _ZNK8KWayland6Server14SlideInterface10metaObjectEv@Base 4:5.5.0
 _ZNK8KWayland6Server14SlideInterface6d_funcEv@Base 4:5.5.0
 _ZNK8KWayland6Server14SlideInterface6offsetEv@Base 4:5.5.0
 _ZNK8KWayland6Server14SlideInterface8locationEv@Base 4:5.5.0
 _ZNK8KWayland6Server14TouchInterface10metaObjectEv@Base 4:5.2.2+git20150326.0109+15.04
 _ZNK8KWayland6Server14TouchInterface6d_funcEv@Base 4:5.2.2+git20150326.0109+15.04
 _ZNK8KWayland6Server15BufferInterface10metaObjectEv@Base 4:5.1.1+git20141128.0009
 _ZNK8KWayland6Server15BufferInterface12isReferencedEv@Base 4:5.1.1+git20141128.0009
 _ZNK8KWayland6Server15BufferInterface15hasAlphaChannelEv@Base 4:5.4.0
 _ZNK8KWayland6Server15BufferInterface4sizeEv@Base 4:5.2.1+git20150303.0028+15.04
 _ZNK8KWayland6Server15BufferInterface7Private6formatEv@Base 4:5.1.1+git20141128.0009
 _ZNK8KWayland6Server15BufferInterface7surfaceEv@Base 4:5.1.1+git20141128.0009
 _ZNK8KWayland6Server15BufferInterface8resourceEv@Base 4:5.2.1+git20150225.0737+15.04
 _ZNK8KWayland6Server15FakeInputDevice10metaObjectEv@Base 4:5.4.0
 _ZNK8KWayland6Server15FakeInputDevice15isAuthenticatedEv@Base 4:5.4.0
 _ZNK8KWayland6Server15FilteredDisplay10metaObjectEv@Base 4:5.41.0
 _ZNK8KWayland6Server15OutputChangeSet10metaObjectEv@Base 4:5.5.0
 _ZNK8KWayland6Server15OutputChangeSet11colorCurvesEv@Base 4:5.50.0
 _ZNK8KWayland6Server15OutputChangeSet11modeChangedEv@Base 4:5.5.0
 _ZNK8KWayland6Server15OutputChangeSet12scaleChangedEv@Base 4:5.5.0
 _ZNK8KWayland6Server15OutputChangeSet14enabledChangedEv@Base 4:5.5.0
 _ZNK8KWayland6Server15OutputChangeSet15positionChangedEv@Base 4:5.5.0
 _ZNK8KWayland6Server15OutputChangeSet16transformChangedEv@Base 4:5.5.0
 _ZNK8KWayland6Server15OutputChangeSet18colorCurvesChangedEv@Base 4:5.50.0
 _ZNK8KWayland6Server15OutputChangeSet4modeEv@Base 4:5.5.0
 _ZNK8KWayland6Server15OutputChangeSet5scaleEv@Base 4:5.5.0
 _ZNK8KWayland6Server15OutputChangeSet6d_funcEv@Base 4:5.5.0
 _ZNK8KWayland6Server15OutputChangeSet6scaleFEv@Base 4:5.50.0
 _ZNK8KWayland6Server15OutputChangeSet7enabledEv@Base 4:5.5.0
 _ZNK8KWayland6Server15OutputChangeSet8positionEv@Base 4:5.5.0
 _ZNK8KWayland6Server15OutputChangeSet9transformEv@Base 4:5.5.0
 _ZNK8KWayland6Server15OutputInterface10metaObjectEv@Base 4:5.1.1+git20141128.0009
 _ZNK8KWayland6Server15OutputInterface11refreshRateEv@Base 4:5.1.1+git20141128.0009
 _ZNK8KWayland6Server15OutputInterface12manufacturerEv@Base 4:5.1.1+git20141128.0009
 _ZNK8KWayland6Server15OutputInterface12physicalSizeEv@Base 4:5.1.1+git20141128.0009
 _ZNK8KWayland6Server15OutputInterface14globalPositionEv@Base 4:5.1.1+git20141128.0009
 _ZNK8KWayland6Server15OutputInterface15clientResourcesEPNS0_16ClientConnectionE@Base 4:5.27.0
 _ZNK8KWayland6Server15OutputInterface15isDpmsSupportedEv@Base 4:5.5.0
 _ZNK8KWayland6Server15OutputInterface5modelEv@Base 4:5.1.1+git20141128.0009
 _ZNK8KWayland6Server15OutputInterface5modesEv@Base 4:5.1.1+git20141128.0009
 _ZNK8KWayland6Server15OutputInterface5scaleEv@Base 4:5.1.1+git20141128.0009
 _ZNK8KWayland6Server15OutputInterface6d_funcEv@Base 4:5.1.1+git20141128.0009
 _ZNK8KWayland6Server15OutputInterface7Private10toSubPixelEv@Base 4:5.1.1+git20141128.0009
 _ZNK8KWayland6Server15OutputInterface7Private11toTransformEv@Base 4:5.1.1+git20141128.0009
 _ZNK8KWayland6Server15OutputInterface8dpmsModeEv@Base 4:5.5.0
 _ZNK8KWayland6Server15OutputInterface8subPixelEv@Base 4:5.1.1+git20141128.0009
 _ZNK8KWayland6Server15OutputInterface9pixelSizeEv@Base 4:5.1.1+git20141128.0009
 _ZNK8KWayland6Server15OutputInterface9transformEv@Base 4:5.1.1+git20141128.0009
 _ZNK8KWayland6Server15RegionInterface10metaObjectEv@Base 4:5.1.1+git20141128.0009
 _ZNK8KWayland6Server15RegionInterface6d_funcEv@Base 4:5.1.1+git20141128.0009
 _ZNK8KWayland6Server15RegionInterface6regionEv@Base 4:5.1.1+git20141128.0009
 _ZNK8KWayland6Server15ShadowInterface10bottomLeftEv@Base 4:5.4.0
 _ZNK8KWayland6Server15ShadowInterface10metaObjectEv@Base 4:5.4.0
 _ZNK8KWayland6Server15ShadowInterface11bottomRightEv@Base 4:5.4.0
 _ZNK8KWayland6Server15ShadowInterface3topEv@Base 4:5.4.0
 _ZNK8KWayland6Server15ShadowInterface4leftEv@Base 4:5.4.0
 _ZNK8KWayland6Server15ShadowInterface5rightEv@Base 4:5.4.0
 _ZNK8KWayland6Server15ShadowInterface6bottomEv@Base 4:5.4.0
 _ZNK8KWayland6Server15ShadowInterface6d_funcEv@Base 4:5.4.0
 _ZNK8KWayland6Server15ShadowInterface6offsetEv@Base 4:5.4.0
 _ZNK8KWayland6Server15ShadowInterface7topLeftEv@Base 4:5.4.0
 _ZNK8KWayland6Server15ShadowInterface8topRightEv@Base 4:5.4.0
 _ZNK8KWayland6Server15TabletInterface10metaObjectEv@Base 4:5.69.0
 _ZNK8KWayland6Server15TabletInterface18isSurfaceSupportedEPNS0_16SurfaceInterfaceE@Base 4:5.69.0
 _ZNK8KWayland6Server16AppMenuInterface10metaObjectEv@Base 4:5.42.0
 _ZNK8KWayland6Server16AppMenuInterface6d_funcEv@Base 4:5.42.0
 _ZNK8KWayland6Server16AppMenuInterface7addressEv@Base 4:5.42.0
 _ZNK8KWayland6Server16AppMenuInterface7surfaceEv@Base 4:5.42.0
 _ZNK8KWayland6Server16ClientConnection10metaObjectEv@Base 4:5.1.1+git20141128.0009
 _ZNK8KWayland6Server16ClientConnection14executablePathEv@Base 4:5.6.2
 _ZNK8KWayland6Server16ClientConnection6userIdEv@Base 4:5.1.1+git20141128.0009
 _ZNK8KWayland6Server16ClientConnection7groupIdEv@Base 4:5.1.1+git20141128.0009
 _ZNK8KWayland6Server16ClientConnection9processIdEv@Base 4:5.1.1+git20141128.0009
 _ZNK8KWayland6Server16ClientConnectioncvP9wl_clientEv@Base 4:5.1.1+git20141128.0009
 _ZNK8KWayland6Server16PointerInterface10metaObjectEv@Base 4:5.1.1+git20141128.0009
 _ZNK8KWayland6Server16PointerInterface6cursorEv@Base 4:5.2.1+git20150228.0043+15.04
 _ZNK8KWayland6Server16PointerInterface6d_funcEv@Base 4:5.1.1+git20141128.0009
 _ZNK8KWayland6Server16SurfaceInterface10metaObjectEv@Base 4:5.1.1+git20141128.0009
 _ZNK8KWayland6Server16SurfaceInterface10subSurfaceEv@Base 4:5.1.1+git20141128.0009
 _ZNK8KWayland6Server16SurfaceInterface12boundingRectEv@Base 4:5.69.0
 _ZNK8KWayland6Server16SurfaceInterface12inhibitsIdleEv@Base 4:5.41.0
 _ZNK8KWayland6Server16SurfaceInterface13lockedPointerEv@Base 4:5.35.0
 _ZNK8KWayland6Server16SurfaceInterface13trackedDamageEv@Base 4:5.22.0
 _ZNK8KWayland6Server16SurfaceInterface15confinedPointerEv@Base 4:5.35.0
 _ZNK8KWayland6Server16SurfaceInterface15inputIsInfiniteEv@Base 4:5.5.0
 _ZNK8KWayland6Server16SurfaceInterface15inputIsInfitineEv@Base 4:5.1.1+git20141128.0009
 _ZNK8KWayland6Server16SurfaceInterface15slideOnShowHideEv@Base 4:5.5.0
 _ZNK8KWayland6Server16SurfaceInterface16childSubSurfacesEv@Base 4:5.1.1+git20141128.0009
 _ZNK8KWayland6Server16SurfaceInterface4blurEv@Base 4:5.5.0
 _ZNK8KWayland6Server16SurfaceInterface4sizeEv@Base 4:5.2.1+git20150304.0028+15.04
 _ZNK8KWayland6Server16SurfaceInterface5inputEv@Base 4:5.1.1+git20141128.0009
 _ZNK8KWayland6Server16SurfaceInterface5scaleEv@Base 4:5.1.1+git20141128.0009
 _ZNK8KWayland6Server16SurfaceInterface6d_funcEv@Base 4:5.1.1+git20141128.0009
 _ZNK8KWayland6Server16SurfaceInterface6damageEv@Base 4:5.1.1+git20141128.0009
 _ZNK8KWayland6Server16SurfaceInterface6offsetEv@Base 4:5.1.1+git20141128.0009
 _ZNK8KWayland6Server16SurfaceInterface6opaqueEv@Base 4:5.1.1+git20141128.0009
 _ZNK8KWayland6Server16SurfaceInterface6shadowEv@Base 4:5.4.0
 _ZNK8KWayland6Server16SurfaceInterface7outputsEv@Base 4:5.27.0
 _ZNK8KWayland6Server16SurfaceInterface8contrastEv@Base 4:5.5.0
 _ZNK8KWayland6Server16SurfaceInterface8isMappedEv@Base 4:5.22.0
 _ZNK8KWayland6Server16SurfaceInterface9dataProxyEv@Base 4:5.61.0
 _ZNK8KWayland6Server16SurfaceInterface9transformEv@Base 4:5.1.1+git20141128.0009
 _ZNK8KWayland6Server17ContrastInterface10metaObjectEv@Base 4:5.5.0
 _ZNK8KWayland6Server17ContrastInterface10saturationEv@Base 4:5.5.0
 _ZNK8KWayland6Server17ContrastInterface6d_funcEv@Base 4:5.5.0
 _ZNK8KWayland6Server17ContrastInterface6regionEv@Base 4:5.5.0
 _ZNK8KWayland6Server17ContrastInterface8contrastEv@Base 4:5.5.0
 _ZNK8KWayland6Server17ContrastInterface9intensityEv@Base 4:5.5.0
 _ZNK8KWayland6Server17KeyStateInterface10metaObjectEv@Base 4:5.61.0
 _ZNK8KWayland6Server17KeyboardInterface10metaObjectEv@Base 4:5.1.1+git20141128.0009
 _ZNK8KWayland6Server17KeyboardInterface14focusedSurfaceEv@Base 4:5.1.1+git20141128.0009
 _ZNK8KWayland6Server17KeyboardInterface6d_funcEv@Base 4:5.1.1+git20141128.0009
 _ZNK8KWayland6Server17LinuxDmabufBuffer4sizeEv@Base 4:5.62.0
 _ZNK8KWayland6Server17LinuxDmabufBuffer6formatEv@Base 4:5.62.0
 _ZNK8KWayland6Server17XdgShellInterface10metaObjectEv@Base 4:5.25.0
 _ZNK8KWayland6Server17XdgShellInterface16interfaceVersionEv@Base 4:5.25.0
 _ZNK8KWayland6Server17XdgShellInterface6d_funcEv@Base 4:5.25.0
 _ZNK8KWayland6Server18DataOfferInterface10metaObjectEv@Base 4:5.1.1+git20141128.0009
 _ZNK8KWayland6Server18DataOfferInterface26preferredDragAndDropActionEv@Base 4:5.42.0
 _ZNK8KWayland6Server18DataOfferInterface27supportedDragAndDropActionsEv@Base 4:5.42.0
 _ZNK8KWayland6Server18DataOfferInterface6d_funcEv@Base 4:5.1.1+git20141128.0009
 _ZNK8KWayland6Server18FakeInputInterface10metaObjectEv@Base 4:5.4.0
 _ZNK8KWayland6Server18TextInputInterface10metaObjectEv@Base 4:5.23.0
 _ZNK8KWayland6Server18TextInputInterface12contentHintsEv@Base 4:5.23.0
 _ZNK8KWayland6Server18TextInputInterface14contentPurposeEv@Base 4:5.23.0
 _ZNK8KWayland6Server18TextInputInterface15cursorRectangleEv@Base 4:5.23.0
 _ZNK8KWayland6Server18TextInputInterface15surroundingTextEv@Base 4:5.23.0
 _ZNK8KWayland6Server18TextInputInterface16interfaceVersionEv@Base 4:5.23.0
 _ZNK8KWayland6Server18TextInputInterface17preferredLanguageEv@Base 4:5.23.0
 _ZNK8KWayland6Server18TextInputInterface29surroundingTextCursorPositionEv@Base 4:5.23.0
 _ZNK8KWayland6Server18TextInputInterface30surroundingTextSelectionAnchorEv@Base 4:5.23.0
 _ZNK8KWayland6Server18TextInputInterface6d_funcEv@Base 4:5.23.0
 _ZNK8KWayland6Server18TextInputInterface7surfaceEv@Base 4:5.23.0
 _ZNK8KWayland6Server18TextInputInterface9isEnabledEv@Base 4:5.23.0
 _ZNK8KWayland6Server18XdgOutputInterface10metaObjectEv@Base 4:5.47.0
 _ZNK8KWayland6Server18XdgOutputInterface11logicalSizeEv@Base 4:5.47.0
 _ZNK8KWayland6Server18XdgOutputInterface15logicalPositionEv@Base 4:5.47.0
 _ZNK8KWayland6Server19CompositorInterface10metaObjectEv@Base 4:5.1.1+git20141128.0009
 _ZNK8KWayland6Server19DataDeviceInterface10dragSourceEv@Base 4:5.1.1+git20141128.0009
 _ZNK8KWayland6Server19DataDeviceInterface10metaObjectEv@Base 4:5.1.1+git20141128.0009
 _ZNK8KWayland6Server19DataDeviceInterface22dragImplicitGrabSerialEv@Base 4:5.6.2
 _ZNK8KWayland6Server19DataDeviceInterface4iconEv@Base 4:5.1.1+git20141128.0009
 _ZNK8KWayland6Server19DataDeviceInterface4seatEv@Base 4:5.1.1+git20141128.0009
 _ZNK8KWayland6Server19DataDeviceInterface6d_funcEv@Base 4:5.1.1+git20141128.0009
 _ZNK8KWayland6Server19DataDeviceInterface6originEv@Base 4:5.1.1+git20141128.0009
 _ZNK8KWayland6Server19DataDeviceInterface9selectionEv@Base 4:5.1.1+git20141128.0009
 _ZNK8KWayland6Server19DataSourceInterface10metaObjectEv@Base 4:5.1.1+git20141128.0009
 _ZNK8KWayland6Server19DataSourceInterface27supportedDragAndDropActionsEv@Base 4:5.42.0
 _ZNK8KWayland6Server19DataSourceInterface6d_funcEv@Base 4:5.1.1+git20141128.0009
 _ZNK8KWayland6Server19DataSourceInterface9mimeTypesEv@Base 4:5.1.1+git20141128.0009
 _ZNK8KWayland6Server19SubSurfaceInterface10metaObjectEv@Base 4:5.1.1+git20141128.0009
 _ZNK8KWayland6Server19SubSurfaceInterface11mainSurfaceEv@Base 4:5.22.0
 _ZNK8KWayland6Server19SubSurfaceInterface13parentSurfaceEv@Base 4:5.22.0
 _ZNK8KWayland6Server19SubSurfaceInterface14isSynchronizedEv@Base 4:5.22.0
 _ZNK8KWayland6Server19SubSurfaceInterface4modeEv@Base 4:5.1.1+git20141128.0009
 _ZNK8KWayland6Server19SubSurfaceInterface6d_funcEv@Base 4:5.1.1+git20141128.0009
 _ZNK8KWayland6Server19SubSurfaceInterface7surfaceEv@Base 4:5.22.0
 _ZNK8KWayland6Server19SubSurfaceInterface8positionEv@Base 4:5.1.1+git20141128.0009
 _ZNK8KWayland6Server19TabletSeatInterface10metaObjectEv@Base 4:5.69.0
 _ZNK8KWayland6Server19TabletSeatInterface12tabletByNameERK7QString@Base 4:5.69.0
 _ZNK8KWayland6Server19TabletSeatInterface16toolByHardwareIdEy@Base 4:5.69.0
 _ZNK8KWayland6Server19TabletSeatInterface20toolByHardwareSerialEy@Base 4:5.69.0
 _ZNK8KWayland6Server19TabletToolInterface10metaObjectEv@Base 4:5.69.0
 _ZNK8KWayland6Server19TabletToolInterface13cursorChangedEPNS0_12TabletCursorE@Base 4:5.69.0
 _ZNK8KWayland6Server19TabletToolInterface17isClientSupportedEv@Base 4:5.69.0
 _ZNK8KWayland6Server19XdgForeignInterface10metaObjectEv@Base 4:5.41.0
 _ZNK8KWayland6Server20BlurManagerInterface10metaObjectEv@Base 4:5.5.0
 _ZNK8KWayland6Server20DpmsManagerInterface10metaObjectEv@Base 4:5.5.0
 _ZNK8KWayland6Server20IdleTimeoutInterface10metaObjectEv@Base 4:5.4.0
 _ZNK8KWayland6Server20IdleTimeoutInterface6d_funcEv@Base 4:5.4.0
 _ZNK8KWayland6Server20PlasmaShellInterface10metaObjectEv@Base 4:5.4.0
 _ZNK8KWayland6Server21OutputDeviceInterface10metaObjectEv@Base 4:5.5.0
 _ZNK8KWayland6Server21OutputDeviceInterface11ColorCurveseqERKS2_@Base 4:5.50.0
 _ZNK8KWayland6Server21OutputDeviceInterface11ColorCurvesneERKS2_@Base 4:5.50.0
 _ZNK8KWayland6Server21OutputDeviceInterface11colorCurvesEv@Base 4:5.50.0
 _ZNK8KWayland6Server21OutputDeviceInterface11refreshRateEv@Base 4:5.5.0
 _ZNK8KWayland6Server21OutputDeviceInterface12manufacturerEv@Base 4:5.5.0
 _ZNK8KWayland6Server21OutputDeviceInterface12physicalSizeEv@Base 4:5.5.0
 _ZNK8KWayland6Server21OutputDeviceInterface12serialNumberEv@Base 4:5.50.0
 _ZNK8KWayland6Server21OutputDeviceInterface13currentModeIdEv@Base 4:5.5.0
 _ZNK8KWayland6Server21OutputDeviceInterface14globalPositionEv@Base 4:5.5.0
 _ZNK8KWayland6Server21OutputDeviceInterface4edidEv@Base 4:5.5.0
 _ZNK8KWayland6Server21OutputDeviceInterface4uuidEv@Base 4:5.5.0
 _ZNK8KWayland6Server21OutputDeviceInterface5modelEv@Base 4:5.5.0
 _ZNK8KWayland6Server21OutputDeviceInterface5modesEv@Base 4:5.5.0
 _ZNK8KWayland6Server21OutputDeviceInterface5scaleEv@Base 4:5.5.0
 _ZNK8KWayland6Server21OutputDeviceInterface6d_funcEv@Base 4:5.5.0
 _ZNK8KWayland6Server21OutputDeviceInterface6eisaIdEv@Base 4:5.50.0
 _ZNK8KWayland6Server21OutputDeviceInterface6scaleFEv@Base 4:5.50.0
 _ZNK8KWayland6Server21OutputDeviceInterface7Private10toSubPixelEv@Base 4:5.5.0
 _ZNK8KWayland6Server21OutputDeviceInterface7Private11toTransformEv@Base 4:5.5.0
 _ZNK8KWayland6Server21OutputDeviceInterface7enabledEv@Base 4:5.5.0
 _ZNK8KWayland6Server21OutputDeviceInterface8subPixelEv@Base 4:5.5.0
 _ZNK8KWayland6Server21OutputDeviceInterface9pixelSizeEv@Base 4:5.5.0
 _ZNK8KWayland6Server21OutputDeviceInterface9transformEv@Base 4:5.5.0
 _ZNK8KWayland6Server21PlasmaWindowInterface10internalIdEv@Base 4:5.70.0
 _ZNK8KWayland6Server21PlasmaWindowInterface10metaObjectEv@Base 4:5.4.0
 _ZNK8KWayland6Server21PlasmaWindowInterface19minimizedGeometriesEv@Base 4:5.5.0
 _ZNK8KWayland6Server21PlasmaWindowInterface21plasmaVirtualDesktopsEv@Base 4:5.52.0
 _ZNK8KWayland6Server21PlasmaWindowInterface7Private17resourceForParentEPS1_P11wl_resource@Base 4:5.24.0
 _ZNK8KWayland6Server21ShellSurfaceInterface10isToplevelEv@Base 4:5.1.1+git20141128.0009
 _ZNK8KWayland6Server21ShellSurfaceInterface10metaObjectEv@Base 4:5.1.1+git20141128.0009
 _ZNK8KWayland6Server21ShellSurfaceInterface11isMaximizedEv@Base 4:5.1.1+git20141216.0026+15.04
 _ZNK8KWayland6Server21ShellSurfaceInterface11isTransientEv@Base 4:5.5.0
 _ZNK8KWayland6Server21ShellSurfaceInterface11windowClassEv@Base 4:5.1.1+git20141128.0009
 _ZNK8KWayland6Server21ShellSurfaceInterface12isFullscreenEv@Base 4:5.1.1+git20141128.0009
 _ZNK8KWayland6Server21ShellSurfaceInterface12transientForEv@Base 4:5.5.0
 _ZNK8KWayland6Server21ShellSurfaceInterface15transientOffsetEv@Base 4:5.5.0
 _ZNK8KWayland6Server21ShellSurfaceInterface20acceptsKeyboardFocusEv@Base 4:5.5.0
 _ZNK8KWayland6Server21ShellSurfaceInterface5shellEv@Base 4:5.1.1+git20141128.0009
 _ZNK8KWayland6Server21ShellSurfaceInterface5titleEv@Base 4:5.1.1+git20141128.0009
 _ZNK8KWayland6Server21ShellSurfaceInterface6d_funcEv@Base 4:5.1.1+git20141128.0009
 _ZNK8KWayland6Server21ShellSurfaceInterface7isPopupEv@Base 4:5.5.0
 _ZNK8KWayland6Server21ShellSurfaceInterface7surfaceEv@Base 4:5.1.1+git20141128.0009
 _ZNK8KWayland6Server21ShellSurfaceInterface8isPingedEv@Base 4:5.1.1+git20141128.0009
 _ZNK8KWayland6Server21SlideManagerInterface10metaObjectEv@Base 4:5.5.0
 _ZNK8KWayland6Server22LockedPointerInterface10metaObjectEv@Base 4:5.35.0
 _ZNK8KWayland6Server22LockedPointerInterface16interfaceVersionEv@Base 4:5.35.0
 _ZNK8KWayland6Server22LockedPointerInterface18cursorPositionHintEv@Base 4:5.49.0
 _ZNK8KWayland6Server22LockedPointerInterface6d_funcEv@Base 4:5.35.0
 _ZNK8KWayland6Server22LockedPointerInterface6regionEv@Base 4:5.35.0
 _ZNK8KWayland6Server22LockedPointerInterface8isLockedEv@Base 4:5.35.0
 _ZNK8KWayland6Server22LockedPointerInterface8lifeTimeEv@Base 4:5.35.0
 _ZNK8KWayland6Server22ShadowManagerInterface10metaObjectEv@Base 4:5.4.0
 _ZNK8KWayland6Server22SubCompositorInterface10metaObjectEv@Base 4:5.1.1+git20141128.0009
 _ZNK8KWayland6Server22TabletManagerInterface10metaObjectEv@Base 4:5.69.0
 _ZNK8KWayland6Server22TabletManagerInterface4seatEPNS0_13SeatInterfaceE@Base 4:5.69.0
 _ZNK8KWayland6Server22XdgDecorationInterface10metaObjectEv@Base 4:5.54.0
 _ZNK8KWayland6Server22XdgDecorationInterface13requestedModeEv@Base 4:5.54.0
 _ZNK8KWayland6Server22XdgDecorationInterface6d_funcEv@Base 4:5.54.0
 _ZNK8KWayland6Server22XdgDecorationInterface7surfaceEv@Base 4:5.54.0
 _ZNK8KWayland6Server22XdgShellPopupInterface10anchorEdgeEv@Base 4:5.41.0
 _ZNK8KWayland6Server22XdgShellPopupInterface10anchorRectEv@Base 4:5.41.0
 _ZNK8KWayland6Server22XdgShellPopupInterface10metaObjectEv@Base 4:5.25.0
 _ZNK8KWayland6Server22XdgShellPopupInterface11initialSizeEv@Base 4:5.41.0
 _ZNK8KWayland6Server22XdgShellPopupInterface12anchorOffsetEv@Base 4:5.41.0
 _ZNK8KWayland6Server22XdgShellPopupInterface12transientForEv@Base 4:5.25.0
 _ZNK8KWayland6Server22XdgShellPopupInterface14windowGeometryEv@Base 4:5.61.0
 _ZNK8KWayland6Server22XdgShellPopupInterface15transientOffsetEv@Base 4:5.25.0
 _ZNK8KWayland6Server22XdgShellPopupInterface21constraintAdjustmentsEv@Base 4:5.41.0
 _ZNK8KWayland6Server22XdgShellPopupInterface6d_funcEv@Base 4:5.25.0
 _ZNK8KWayland6Server22XdgShellPopupInterface7gravityEv@Base 4:5.41.0
 _ZNK8KWayland6Server22XdgShellPopupInterface7surfaceEv@Base 4:5.25.0
 _ZNK8KWayland6Server23AppMenuManagerInterface10metaObjectEv@Base 4:5.42.0
 _ZNK8KWayland6Server23AppMenuManagerInterface6d_funcEv@Base 4:5.42.0
 _ZNK8KWayland6Server24ConfinedPointerInterface10isConfinedEv@Base 4:5.35.0
 _ZNK8KWayland6Server24ConfinedPointerInterface10metaObjectEv@Base 4:5.35.0
 _ZNK8KWayland6Server24ConfinedPointerInterface16interfaceVersionEv@Base 4:5.35.0
 _ZNK8KWayland6Server24ConfinedPointerInterface6d_funcEv@Base 4:5.35.0
 _ZNK8KWayland6Server24ConfinedPointerInterface6regionEv@Base 4:5.35.0
 _ZNK8KWayland6Server24ConfinedPointerInterface8lifeTimeEv@Base 4:5.35.0
 _ZNK8KWayland6Server24ContrastManagerInterface10metaObjectEv@Base 4:5.5.0
 _ZNK8KWayland6Server24PointerGesturesInterface10metaObjectEv@Base 4:5.35.0
 _ZNK8KWayland6Server24PointerGesturesInterface16interfaceVersionEv@Base 4:5.35.0
 _ZNK8KWayland6Server24PointerGesturesInterface6d_funcEv@Base 4:5.35.0
 _ZNK8KWayland6Server24XdgShellSurfaceInterface10metaObjectEv@Base 4:5.25.0
 _ZNK8KWayland6Server24XdgShellSurfaceInterface11isTransientEv@Base 4:5.25.0
 _ZNK8KWayland6Server24XdgShellSurfaceInterface11maximumSizeEv@Base 4:5.69.0
 _ZNK8KWayland6Server24XdgShellSurfaceInterface11minimumSizeEv@Base 4:5.69.0
 _ZNK8KWayland6Server24XdgShellSurfaceInterface11windowClassEv@Base 4:5.25.0
 _ZNK8KWayland6Server24XdgShellSurfaceInterface12transientForEv@Base 4:5.25.0
 _ZNK8KWayland6Server24XdgShellSurfaceInterface14windowGeometryEv@Base 4:5.61.0
 _ZNK8KWayland6Server24XdgShellSurfaceInterface16interfaceVersionEv@Base 4:5.25.0
 _ZNK8KWayland6Server24XdgShellSurfaceInterface18isConfigurePendingEv@Base 4:5.25.0
 _ZNK8KWayland6Server24XdgShellSurfaceInterface5titleEv@Base 4:5.25.0
 _ZNK8KWayland6Server24XdgShellSurfaceInterface6d_funcEv@Base 4:5.25.0
 _ZNK8KWayland6Server24XdgShellSurfaceInterface7surfaceEv@Base 4:5.25.0
 _ZNK8KWayland6Server25OutputManagementInterface10metaObjectEv@Base 4:5.5.0
 _ZNK8KWayland6Server25TextInputManagerInterface10metaObjectEv@Base 4:5.23.0
 _ZNK8KWayland6Server25TextInputManagerInterface16interfaceVersionEv@Base 4:5.23.0
 _ZNK8KWayland6Server25TextInputManagerInterface6d_funcEv@Base 4:5.23.0
 _ZNK8KWayland6Server25XdgOutputManagerInterface10metaObjectEv@Base 4:5.47.0
 _ZNK8KWayland6Server25XdgOutputManagerInterface6d_funcEv@Base 4:5.47.0
 _ZNK8KWayland6Server26DataDeviceManagerInterface10metaObjectEv@Base 4:5.1.1+git20141128.0009
 _ZNK8KWayland6Server26QtExtendedSurfaceInterface10metaObjectEv@Base 4:5.4.0
 _ZNK8KWayland6Server26QtExtendedSurfaceInterface5shellEv@Base 4:5.4.0
 _ZNK8KWayland6Server26QtExtendedSurfaceInterface6d_funcEv@Base 4:5.4.0
 _ZNK8KWayland6Server26QtExtendedSurfaceInterface7surfaceEv@Base 4:5.4.0
 _ZNK8KWayland6Server27IdleInhibitManagerInterface10metaObjectEv@Base 4:5.41.0
 _ZNK8KWayland6Server27IdleInhibitManagerInterface16interfaceVersionEv@Base 4:5.41.0
 _ZNK8KWayland6Server27IdleInhibitManagerInterface6d_funcEv@Base 4:5.41.0
 _ZNK8KWayland6Server27PlasmaShellSurfaceInterface10metaObjectEv@Base 4:5.4.0
 _ZNK8KWayland6Server27PlasmaShellSurfaceInterface11skipTaskbarEv@Base 4:5.5.0
 _ZNK8KWayland6Server27PlasmaShellSurfaceInterface12skipSwitcherEv@Base 4:5.47.0
 _ZNK8KWayland6Server27PlasmaShellSurfaceInterface13isPositionSetEv@Base 4:5.4.0
 _ZNK8KWayland6Server27PlasmaShellSurfaceInterface13panelBehaviorEv@Base 4:5.4.0
 _ZNK8KWayland6Server27PlasmaShellSurfaceInterface15panelTakesFocusEv@Base 4:5.28.0
 _ZNK8KWayland6Server27PlasmaShellSurfaceInterface4roleEv@Base 4:5.4.0
 _ZNK8KWayland6Server27PlasmaShellSurfaceInterface5shellEv@Base 4:5.4.0
 _ZNK8KWayland6Server27PlasmaShellSurfaceInterface6d_funcEv@Base 4:5.4.0
 _ZNK8KWayland6Server27PlasmaShellSurfaceInterface7surfaceEv@Base 4:5.4.0
 _ZNK8KWayland6Server27PlasmaShellSurfaceInterface8positionEv@Base 4:5.4.0
 _ZNK8KWayland6Server27PointerConstraintsInterface10metaObjectEv@Base 4:5.35.0
 _ZNK8KWayland6Server27PointerConstraintsInterface16interfaceVersionEv@Base 4:5.35.0
 _ZNK8KWayland6Server27PointerConstraintsInterface6d_funcEv@Base 4:5.35.0
 _ZNK8KWayland6Server27QtSurfaceExtensionInterface10metaObjectEv@Base 4:5.4.0
 _ZNK8KWayland6Server28EglStreamControllerInterface10metaObjectEv@Base 4:5.61.0
 _ZNK8KWayland6Server28OutputConfigurationInterface10metaObjectEv@Base 4:5.5.0
 _ZNK8KWayland6Server28OutputConfigurationInterface6d_funcEv@Base 4:5.5.0
 _ZNK8KWayland6Server28OutputConfigurationInterface7Private17hasPendingChangesEPNS0_21OutputDeviceInterfaceE@Base 4:5.5.0
 _ZNK8KWayland6Server28OutputConfigurationInterface7Private32emitConfigurationChangeRequestedEv@Base 4:5.5.0
 _ZNK8KWayland6Server28OutputConfigurationInterface7changesEv@Base 4:5.5.0
 _ZNK8KWayland6Server28RemoteAccessManagerInterface10metaObjectEv@Base 4:5.45.0
 _ZNK8KWayland6Server28RemoteAccessManagerInterface7isBoundEv@Base 4:5.45.0
 _ZNK8KWayland6Server29PlasmaVirtualDesktopInterface10metaObjectEv@Base 4:5.52.0
 _ZNK8KWayland6Server29PlasmaVirtualDesktopInterface2idEv@Base 4:5.52.0
 _ZNK8KWayland6Server29PlasmaVirtualDesktopInterface4nameEv@Base 4:5.52.0
 _ZNK8KWayland6Server29PlasmaVirtualDesktopInterface8isActiveEv@Base 4:5.52.0
 _ZNK8KWayland6Server29ServerSideDecorationInterface10metaObjectEv@Base 4:5.6.2
 _ZNK8KWayland6Server29ServerSideDecorationInterface4modeEv@Base 4:5.6.2
 _ZNK8KWayland6Server29ServerSideDecorationInterface6d_funcEv@Base 4:5.6.2
 _ZNK8KWayland6Server29ServerSideDecorationInterface7surfaceEv@Base 4:5.6.2
 _ZNK8KWayland6Server29XdgDecorationManagerInterface10metaObjectEv@Base 4:5.54.0
 _ZNK8KWayland6Server30LinuxDmabufUnstableV1Interface10metaObjectEv@Base 4:5.62.0
 _ZNK8KWayland6Server30LinuxDmabufUnstableV1Interface6d_funcEv@Base 4:5.62.0
 _ZNK8KWayland6Server31PlasmaWindowManagementInterface10metaObjectEv@Base 4:5.4.0
 _ZNK8KWayland6Server31PlasmaWindowManagementInterface39plasmaVirtualDesktopManagementInterfaceEv@Base 4:5.52.0
 _ZNK8KWayland6Server31PlasmaWindowManagementInterface6d_funcEv@Base 4:5.4.0
 _ZNK8KWayland6Server31PlasmaWindowManagementInterface7windowsEv@Base 4:5.52.0
 _ZNK8KWayland6Server31RelativePointerManagerInterface10metaObjectEv@Base 4:5.28.0
 _ZNK8KWayland6Server31RelativePointerManagerInterface16interfaceVersionEv@Base 4:5.28.0
 _ZNK8KWayland6Server31RelativePointerManagerInterface6d_funcEv@Base 4:5.28.0
 _ZNK8KWayland6Server36ServerSideDecorationManagerInterface10metaObjectEv@Base 4:5.6.2
 _ZNK8KWayland6Server36ServerSideDecorationManagerInterface11defaultModeEv@Base 4:5.6.2
 _ZNK8KWayland6Server36ServerSideDecorationManagerInterface6d_funcEv@Base 4:5.6.2
 _ZNK8KWayland6Server36ServerSideDecorationPaletteInterface10metaObjectEv@Base 4:5.42.0
 _ZNK8KWayland6Server36ServerSideDecorationPaletteInterface6d_funcEv@Base 4:5.42.0
 _ZNK8KWayland6Server36ServerSideDecorationPaletteInterface7paletteEv@Base 4:5.42.0
 _ZNK8KWayland6Server36ServerSideDecorationPaletteInterface7surfaceEv@Base 4:5.42.0
 _ZNK8KWayland6Server39PlasmaVirtualDesktopManagementInterface10metaObjectEv@Base 4:5.52.0
 _ZNK8KWayland6Server39PlasmaVirtualDesktopManagementInterface6d_funcEv@Base 4:5.52.0
 _ZNK8KWayland6Server39PlasmaVirtualDesktopManagementInterface8desktopsEv@Base 4:5.52.0
 _ZNK8KWayland6Server43ServerSideDecorationPaletteManagerInterface10metaObjectEv@Base 4:5.42.0
 _ZNK8KWayland6Server43ServerSideDecorationPaletteManagerInterface6d_funcEv@Base 4:5.42.0
 _ZNK8KWayland6Server6Cursor10metaObjectEv@Base 4:5.2.1+git20150228.0043+15.04
 _ZNK8KWayland6Server6Cursor13enteredSerialEv@Base 4:5.2.1+git20150228.0043+15.04
 _ZNK8KWayland6Server6Cursor7hotspotEv@Base 4:5.2.1+git20150228.0043+15.04
 _ZNK8KWayland6Server6Cursor7pointerEv@Base 4:5.2.1+git20150228.0043+15.04
 _ZNK8KWayland6Server6Cursor7surfaceEv@Base 4:5.2.1+git20150228.0043+15.04
 _ZNK8KWayland6Server6Global10metaObjectEv@Base 4:5.1.1+git20141128.0009
 _ZNK8KWayland6Server6Global7isValidEv@Base 4:5.1.1+git20141128.0009
 _ZNK8KWayland6Server6GlobalcvP9wl_globalEv@Base 4:5.1.1+git20141128.0009
 _ZNK8KWayland6Server7Display10eglDisplayEv@Base 4:5.2.1+git20150304.0028+15.04
 _ZNK8KWayland6Server7Display10metaObjectEv@Base 4:5.1.1+git20141128.0009
 _ZNK8KWayland6Server7Display10socketNameEv@Base 4:5.1.1+git20141128.0009
 _ZNK8KWayland6Server7Display11connectionsEv@Base 4:5.1.1+git20141128.0009
 _ZNK8KWayland6Server7Display13outputDevicesEv@Base 4:5.5.0
 _ZNK8KWayland6Server7Display21automaticSocketNamingEv@Base 4:5.61.0
 _ZNK8KWayland6Server7Display5seatsEv@Base 4:5.6.2
 _ZNK8KWayland6Server7Display7outputsEv@Base 4:5.1.1+git20141128.0009
 _ZNK8KWayland6Server7Display9isRunningEv@Base 4:5.1.1+git20141128.0009
 _ZNK8KWayland6Server7DisplaycvP10wl_displayEv@Base 4:5.1.1+git20141128.0009
 _ZNK8KWayland6Server8Resource10metaObjectEv@Base 4:5.1.1+git20141128.0009
 _ZNK8KWayland6Server8Resource14parentResourceEv@Base 4:5.1.1+git20141128.0009
 _ZNK8KWayland6Server8Resource2idEv@Base 4:5.2.0+git20150210.2224+15.04
 _ZTIN8KWayland6Server12BufferHandleE@Base 4:5.45.0
 _ZTIN8KWayland6Server12TabletCursorE@Base 4:5.69.0
 _ZTIN8KWayland6Server13BlurInterface7PrivateE@Base 4:5.5.0
 _ZTIN8KWayland6Server13BlurInterfaceE@Base 4:5.5.0
 _ZTIN8KWayland6Server13IdleInterface7PrivateE@Base 4:5.4.0
 _ZTIN8KWayland6Server13IdleInterfaceE@Base 4:5.4.0
 _ZTIN8KWayland6Server13SeatInterface7PrivateE@Base 4:5.1.1+git20141128.0009
 _ZTIN8KWayland6Server13SeatInterfaceE@Base 4:5.1.1+git20141128.0009
 _ZTIN8KWayland6Server14ShellInterface7PrivateE@Base 4:5.1.1+git20141128.0009
 _ZTIN8KWayland6Server14ShellInterfaceE@Base 4:5.1.1+git20141128.0009
 _ZTIN8KWayland6Server14SlideInterface7PrivateE@Base 4:5.5.0
 _ZTIN8KWayland6Server14SlideInterfaceE@Base 4:5.5.0
 _ZTIN8KWayland6Server14TouchInterface7PrivateE@Base 4:5.2.2+git20150326.0109+15.04
 _ZTIN8KWayland6Server14TouchInterfaceE@Base 4:5.2.2+git20150326.0109+15.04
 _ZTIN8KWayland6Server15BufferInterfaceE@Base 4:5.1.1+git20141128.0009
 _ZTIN8KWayland6Server15FakeInputDeviceE@Base 4:5.4.0
 _ZTIN8KWayland6Server15FilteredDisplayE@Base 4:5.41.0
 _ZTIN8KWayland6Server15OutputChangeSetE@Base 4:5.5.0
 _ZTIN8KWayland6Server15OutputInterface7PrivateE@Base 4:5.1.1+git20141128.0009
 _ZTIN8KWayland6Server15OutputInterfaceE@Base 4:5.1.1+git20141128.0009
 _ZTIN8KWayland6Server15RegionInterface7PrivateE@Base 4:5.1.1+git20141128.0009
 _ZTIN8KWayland6Server15RegionInterfaceE@Base 4:5.1.1+git20141128.0009
 _ZTIN8KWayland6Server15ShadowInterface7PrivateE@Base 4:5.4.0
 _ZTIN8KWayland6Server15ShadowInterfaceE@Base 4:5.4.0
 _ZTIN8KWayland6Server15TabletInterface7PrivateE@Base 4:5.69.0
 _ZTIN8KWayland6Server15TabletInterfaceE@Base 4:5.69.0
 _ZTIN8KWayland6Server16AppMenuInterface7PrivateE@Base 4:5.42.0
 _ZTIN8KWayland6Server16AppMenuInterfaceE@Base 4:5.42.0
 _ZTIN8KWayland6Server16ClientConnectionE@Base 4:5.1.1+git20141128.0009
 _ZTIN8KWayland6Server16PointerInterface7PrivateE@Base 4:5.1.1+git20141128.0009
 _ZTIN8KWayland6Server16PointerInterfaceE@Base 4:5.1.1+git20141128.0009
 _ZTIN8KWayland6Server16SurfaceInterface7PrivateE@Base 4:5.1.1+git20141128.0009
 _ZTIN8KWayland6Server16SurfaceInterfaceE@Base 4:5.1.1+git20141128.0009
 _ZTIN8KWayland6Server17ContrastInterface7PrivateE@Base 4:5.5.0
 _ZTIN8KWayland6Server17ContrastInterfaceE@Base 4:5.5.0
 _ZTIN8KWayland6Server17KeyStateInterface7PrivateE@Base 4:5.61.0
 _ZTIN8KWayland6Server17KeyStateInterfaceE@Base 4:5.61.0
 _ZTIN8KWayland6Server17KeyboardInterface7PrivateE@Base 4:5.1.1+git20141128.0009
 _ZTIN8KWayland6Server17KeyboardInterfaceE@Base 4:5.1.1+git20141128.0009
 _ZTIN8KWayland6Server17LinuxDmabufBuffer7PrivateE@Base 4:5.62.0
 _ZTIN8KWayland6Server17LinuxDmabufBufferE@Base 4:5.62.0
 _ZTIN8KWayland6Server17XdgShellInterface7PrivateE@Base 4:5.25.0
 _ZTIN8KWayland6Server17XdgShellInterfaceE@Base 4:5.25.0
 _ZTIN8KWayland6Server18DataOfferInterfaceE@Base 4:5.1.1+git20141128.0009
 _ZTIN8KWayland6Server18FakeInputInterface7PrivateE@Base 4:5.4.0
 _ZTIN8KWayland6Server18FakeInputInterfaceE@Base 4:5.4.0
 _ZTIN8KWayland6Server18TextInputInterface7PrivateE@Base 4:5.23.0
 _ZTIN8KWayland6Server18TextInputInterfaceE@Base 4:5.23.0
 _ZTIN8KWayland6Server18XdgOutputInterfaceE@Base 4:5.47.0
 _ZTIN8KWayland6Server19CompositorInterface7PrivateE@Base 4:5.1.1+git20141128.0009
 _ZTIN8KWayland6Server19CompositorInterfaceE@Base 4:5.1.1+git20141128.0009
 _ZTIN8KWayland6Server19DataDeviceInterface7PrivateE@Base 4:5.1.1+git20141128.0009
 _ZTIN8KWayland6Server19DataDeviceInterfaceE@Base 4:5.1.1+git20141128.0009
 _ZTIN8KWayland6Server19DataSourceInterface7PrivateE@Base 4:5.1.1+git20141128.0009
 _ZTIN8KWayland6Server19DataSourceInterfaceE@Base 4:5.1.1+git20141128.0009
 _ZTIN8KWayland6Server19SubSurfaceInterface7PrivateE@Base 4:5.1.1+git20141128.0009
 _ZTIN8KWayland6Server19SubSurfaceInterfaceE@Base 4:5.1.1+git20141128.0009
 _ZTIN8KWayland6Server19TabletSeatInterface7PrivateE@Base 4:5.69.0
 _ZTIN8KWayland6Server19TabletSeatInterfaceE@Base 4:5.69.0
 _ZTIN8KWayland6Server19TabletToolInterface7PrivateE@Base 4:5.69.0
 _ZTIN8KWayland6Server19TabletToolInterfaceE@Base 4:5.69.0
 _ZTIN8KWayland6Server19XdgForeignInterfaceE@Base 4:5.41.0
 _ZTIN8KWayland6Server20BlurManagerInterface7PrivateE@Base 4:5.5.0
 _ZTIN8KWayland6Server20BlurManagerInterfaceE@Base 4:5.5.0
 _ZTIN8KWayland6Server20DpmsManagerInterface7PrivateE@Base 4:5.5.0
 _ZTIN8KWayland6Server20DpmsManagerInterfaceE@Base 4:5.5.0
 _ZTIN8KWayland6Server20IdleTimeoutInterface7PrivateE@Base 4:5.4.0
 _ZTIN8KWayland6Server20IdleTimeoutInterfaceE@Base 4:5.4.0
 _ZTIN8KWayland6Server20PlasmaShellInterface7PrivateE@Base 4:5.4.0
 _ZTIN8KWayland6Server20PlasmaShellInterfaceE@Base 4:5.4.0
 _ZTIN8KWayland6Server21OutputDeviceInterface7PrivateE@Base 4:5.5.0
 _ZTIN8KWayland6Server21OutputDeviceInterfaceE@Base 4:5.5.0
 _ZTIN8KWayland6Server21PlasmaWindowInterfaceE@Base 4:5.4.0
 _ZTIN8KWayland6Server21ShellSurfaceInterface7PrivateE@Base 4:5.1.1+git20141128.0009
 _ZTIN8KWayland6Server21ShellSurfaceInterfaceE@Base 4:5.1.1+git20141128.0009
 _ZTIN8KWayland6Server21SlideManagerInterface7PrivateE@Base 4:5.5.0
 _ZTIN8KWayland6Server21SlideManagerInterfaceE@Base 4:5.5.0
 _ZTIN8KWayland6Server22LockedPointerInterface7PrivateE@Base 4:5.35.0
 _ZTIN8KWayland6Server22LockedPointerInterfaceE@Base 4:5.35.0
 _ZTIN8KWayland6Server22ShadowManagerInterface7PrivateE@Base 4:5.4.0
 _ZTIN8KWayland6Server22ShadowManagerInterfaceE@Base 4:5.4.0
 _ZTIN8KWayland6Server22SubCompositorInterface7PrivateE@Base 4:5.1.1+git20141128.0009
 _ZTIN8KWayland6Server22SubCompositorInterfaceE@Base 4:5.1.1+git20141128.0009
 _ZTIN8KWayland6Server22TabletManagerInterface7PrivateE@Base 4:5.69.0
 _ZTIN8KWayland6Server22TabletManagerInterfaceE@Base 4:5.69.0
 _ZTIN8KWayland6Server22XdgDecorationInterface7PrivateE@Base 4:5.54.0
 _ZTIN8KWayland6Server22XdgDecorationInterfaceE@Base 4:5.54.0
 _ZTIN8KWayland6Server22XdgShellPopupInterface7PrivateE@Base 4:5.25.0
 _ZTIN8KWayland6Server22XdgShellPopupInterfaceE@Base 4:5.25.0
 _ZTIN8KWayland6Server23AppMenuManagerInterface7PrivateE@Base 4:5.42.0
 _ZTIN8KWayland6Server23AppMenuManagerInterfaceE@Base 4:5.42.0
 _ZTIN8KWayland6Server24ConfinedPointerInterface7PrivateE@Base 4:5.35.0
 _ZTIN8KWayland6Server24ConfinedPointerInterfaceE@Base 4:5.35.0
 _ZTIN8KWayland6Server24ContrastManagerInterface7PrivateE@Base 4:5.5.0
 _ZTIN8KWayland6Server24ContrastManagerInterfaceE@Base 4:5.5.0
 _ZTIN8KWayland6Server24PointerGesturesInterface7PrivateE@Base 4:5.35.0
 _ZTIN8KWayland6Server24PointerGesturesInterfaceE@Base 4:5.35.0
 _ZTIN8KWayland6Server24XdgShellSurfaceInterface7PrivateE@Base 4:5.25.0
 _ZTIN8KWayland6Server24XdgShellSurfaceInterfaceE@Base 4:5.25.0
 _ZTIN8KWayland6Server25OutputManagementInterface7PrivateE@Base 4:5.5.0
 _ZTIN8KWayland6Server25OutputManagementInterfaceE@Base 4:5.5.0
 _ZTIN8KWayland6Server25TextInputManagerInterface7PrivateE@Base 4:5.23.0
 _ZTIN8KWayland6Server25TextInputManagerInterfaceE@Base 4:5.23.0
 _ZTIN8KWayland6Server25XdgOutputManagerInterface7PrivateE@Base 4:5.47.0
 _ZTIN8KWayland6Server25XdgOutputManagerInterfaceE@Base 4:5.47.0
 _ZTIN8KWayland6Server26DataDeviceManagerInterface7PrivateE@Base 4:5.1.1+git20141128.0009
 _ZTIN8KWayland6Server26DataDeviceManagerInterfaceE@Base 4:5.1.1+git20141128.0009
 _ZTIN8KWayland6Server26QtExtendedSurfaceInterface7PrivateE@Base 4:5.4.0
 _ZTIN8KWayland6Server26QtExtendedSurfaceInterfaceE@Base 4:5.4.0
 _ZTIN8KWayland6Server27IdleInhibitManagerInterfaceE@Base 4:5.41.0
 _ZTIN8KWayland6Server27LinuxDmabufUnstableV1Buffer7PrivateE@Base 4:5.62.0
 _ZTIN8KWayland6Server27LinuxDmabufUnstableV1BufferE@Base 4:5.62.0
 _ZTIN8KWayland6Server27PlasmaShellSurfaceInterface7PrivateE@Base 4:5.4.0
 _ZTIN8KWayland6Server27PlasmaShellSurfaceInterfaceE@Base 4:5.4.0
 _ZTIN8KWayland6Server27PointerConstraintsInterface7PrivateE@Base 4:5.35.0
 _ZTIN8KWayland6Server27PointerConstraintsInterfaceE@Base 4:5.35.0
 _ZTIN8KWayland6Server27QtSurfaceExtensionInterface7PrivateE@Base 4:5.4.0
 _ZTIN8KWayland6Server27QtSurfaceExtensionInterfaceE@Base 4:5.4.0
 _ZTIN8KWayland6Server28EglStreamControllerInterfaceE@Base 4:5.61.0
 _ZTIN8KWayland6Server28OutputConfigurationInterface7PrivateE@Base 4:5.5.0
 _ZTIN8KWayland6Server28OutputConfigurationInterfaceE@Base 4:5.5.0
 _ZTIN8KWayland6Server28RemoteAccessManagerInterface7PrivateE@Base 4:5.45.0
 _ZTIN8KWayland6Server28RemoteAccessManagerInterfaceE@Base 4:5.45.0
 _ZTIN8KWayland6Server29PlasmaVirtualDesktopInterfaceE@Base 4:5.52.0
 _ZTIN8KWayland6Server29ServerSideDecorationInterface7PrivateE@Base 4:5.6.2
 _ZTIN8KWayland6Server29ServerSideDecorationInterfaceE@Base 4:5.6.2
 _ZTIN8KWayland6Server29XdgDecorationManagerInterface7PrivateE@Base 4:5.54.0
 _ZTIN8KWayland6Server29XdgDecorationManagerInterfaceE@Base 4:5.54.0
 _ZTIN8KWayland6Server30LinuxDmabufUnstableV1Interface7PrivateE@Base 4:5.62.0
 _ZTIN8KWayland6Server30LinuxDmabufUnstableV1InterfaceE@Base 4:5.62.0
 _ZTIN8KWayland6Server31PlasmaWindowManagementInterface7PrivateE@Base 4:5.4.0
 _ZTIN8KWayland6Server31PlasmaWindowManagementInterfaceE@Base 4:5.4.0
 _ZTIN8KWayland6Server31RelativePointerManagerInterface7PrivateE@Base 4:5.28.0
 _ZTIN8KWayland6Server31RelativePointerManagerInterfaceE@Base 4:5.28.0
 _ZTIN8KWayland6Server36ServerSideDecorationManagerInterface7PrivateE@Base 4:5.6.2
 _ZTIN8KWayland6Server36ServerSideDecorationManagerInterfaceE@Base 4:5.6.2
 _ZTIN8KWayland6Server36ServerSideDecorationPaletteInterface7PrivateE@Base 4:5.42.0
 _ZTIN8KWayland6Server36ServerSideDecorationPaletteInterfaceE@Base 4:5.42.0
 _ZTIN8KWayland6Server39PlasmaVirtualDesktopManagementInterfaceE@Base 4:5.52.0
 _ZTIN8KWayland6Server43ServerSideDecorationPaletteManagerInterface7PrivateE@Base 4:5.42.0
 _ZTIN8KWayland6Server43ServerSideDecorationPaletteManagerInterfaceE@Base 4:5.42.0
 _ZTIN8KWayland6Server6CursorE@Base 4:5.2.1+git20150228.0043+15.04
 _ZTIN8KWayland6Server6Global7PrivateE@Base 4:5.1.1+git20141128.0009
 _ZTIN8KWayland6Server6GlobalE@Base 4:5.1.1+git20141128.0009
 _ZTIN8KWayland6Server7DisplayE@Base 4:5.1.1+git20141128.0009
 _ZTIN8KWayland6Server8Resource7PrivateE@Base 4:5.1.1+git20141128.0009
 _ZTIN8KWayland6Server8ResourceE@Base 4:5.1.1+git20141128.0009
 _ZTSN8KWayland6Server12BufferHandleE@Base 4:5.45.0
 _ZTSN8KWayland6Server12TabletCursorE@Base 4:5.69.0
 _ZTSN8KWayland6Server13BlurInterface7PrivateE@Base 4:5.5.0
 _ZTSN8KWayland6Server13BlurInterfaceE@Base 4:5.5.0
 _ZTSN8KWayland6Server13IdleInterface7PrivateE@Base 4:5.4.0
 _ZTSN8KWayland6Server13IdleInterfaceE@Base 4:5.4.0
 _ZTSN8KWayland6Server13SeatInterface7PrivateE@Base 4:5.1.1+git20141128.0009
 _ZTSN8KWayland6Server13SeatInterfaceE@Base 4:5.1.1+git20141128.0009
 _ZTSN8KWayland6Server14ShellInterface7PrivateE@Base 4:5.1.1+git20141128.0009
 _ZTSN8KWayland6Server14ShellInterfaceE@Base 4:5.1.1+git20141128.0009
 _ZTSN8KWayland6Server14SlideInterface7PrivateE@Base 4:5.5.0
 _ZTSN8KWayland6Server14SlideInterfaceE@Base 4:5.5.0
 _ZTSN8KWayland6Server14TouchInterface7PrivateE@Base 4:5.2.2+git20150326.0109+15.04
 _ZTSN8KWayland6Server14TouchInterfaceE@Base 4:5.2.2+git20150326.0109+15.04
 _ZTSN8KWayland6Server15BufferInterfaceE@Base 4:5.1.1+git20141128.0009
 _ZTSN8KWayland6Server15FakeInputDeviceE@Base 4:5.4.0
 _ZTSN8KWayland6Server15FilteredDisplayE@Base 4:5.41.0
 _ZTSN8KWayland6Server15OutputChangeSetE@Base 4:5.5.0
 _ZTSN8KWayland6Server15OutputInterface7PrivateE@Base 4:5.1.1+git20141128.0009
 _ZTSN8KWayland6Server15OutputInterfaceE@Base 4:5.1.1+git20141128.0009
 _ZTSN8KWayland6Server15RegionInterface7PrivateE@Base 4:5.1.1+git20141128.0009
 _ZTSN8KWayland6Server15RegionInterfaceE@Base 4:5.1.1+git20141128.0009
 _ZTSN8KWayland6Server15ShadowInterface7PrivateE@Base 4:5.4.0
 _ZTSN8KWayland6Server15ShadowInterfaceE@Base 4:5.4.0
 _ZTSN8KWayland6Server15TabletInterface7PrivateE@Base 4:5.69.0
 _ZTSN8KWayland6Server15TabletInterfaceE@Base 4:5.69.0
 _ZTSN8KWayland6Server16AppMenuInterface7PrivateE@Base 4:5.42.0
 _ZTSN8KWayland6Server16AppMenuInterfaceE@Base 4:5.42.0
 _ZTSN8KWayland6Server16ClientConnectionE@Base 4:5.1.1+git20141128.0009
 _ZTSN8KWayland6Server16PointerInterface7PrivateE@Base 4:5.1.1+git20141128.0009
 _ZTSN8KWayland6Server16PointerInterfaceE@Base 4:5.1.1+git20141128.0009
 _ZTSN8KWayland6Server16SurfaceInterface7PrivateE@Base 4:5.1.1+git20141128.0009
 _ZTSN8KWayland6Server16SurfaceInterfaceE@Base 4:5.1.1+git20141128.0009
 _ZTSN8KWayland6Server17ContrastInterface7PrivateE@Base 4:5.5.0
 _ZTSN8KWayland6Server17ContrastInterfaceE@Base 4:5.5.0
 _ZTSN8KWayland6Server17KeyStateInterface7PrivateE@Base 4:5.61.0
 _ZTSN8KWayland6Server17KeyStateInterfaceE@Base 4:5.61.0
 _ZTSN8KWayland6Server17KeyboardInterface7PrivateE@Base 4:5.1.1+git20141128.0009
 _ZTSN8KWayland6Server17KeyboardInterfaceE@Base 4:5.1.1+git20141128.0009
 _ZTSN8KWayland6Server17LinuxDmabufBuffer7PrivateE@Base 4:5.62.0
 _ZTSN8KWayland6Server17LinuxDmabufBufferE@Base 4:5.62.0
 _ZTSN8KWayland6Server17XdgShellInterface7PrivateE@Base 4:5.25.0
 _ZTSN8KWayland6Server17XdgShellInterfaceE@Base 4:5.25.0
 _ZTSN8KWayland6Server18DataOfferInterfaceE@Base 4:5.1.1+git20141128.0009
 _ZTSN8KWayland6Server18FakeInputInterface7PrivateE@Base 4:5.4.0
 _ZTSN8KWayland6Server18FakeInputInterfaceE@Base 4:5.4.0
 _ZTSN8KWayland6Server18TextInputInterface7PrivateE@Base 4:5.23.0
 _ZTSN8KWayland6Server18TextInputInterfaceE@Base 4:5.23.0
 _ZTSN8KWayland6Server18XdgOutputInterfaceE@Base 4:5.47.0
 _ZTSN8KWayland6Server19CompositorInterface7PrivateE@Base 4:5.1.1+git20141128.0009
 _ZTSN8KWayland6Server19CompositorInterfaceE@Base 4:5.1.1+git20141128.0009
 _ZTSN8KWayland6Server19DataDeviceInterface7PrivateE@Base 4:5.1.1+git20141128.0009
 _ZTSN8KWayland6Server19DataDeviceInterfaceE@Base 4:5.1.1+git20141128.0009
 _ZTSN8KWayland6Server19DataSourceInterface7PrivateE@Base 4:5.1.1+git20141128.0009
 _ZTSN8KWayland6Server19DataSourceInterfaceE@Base 4:5.1.1+git20141128.0009
 _ZTSN8KWayland6Server19SubSurfaceInterface7PrivateE@Base 4:5.1.1+git20141128.0009
 _ZTSN8KWayland6Server19SubSurfaceInterfaceE@Base 4:5.1.1+git20141128.0009
 _ZTSN8KWayland6Server19TabletSeatInterface7PrivateE@Base 4:5.69.0
 _ZTSN8KWayland6Server19TabletSeatInterfaceE@Base 4:5.69.0
 _ZTSN8KWayland6Server19TabletToolInterface7PrivateE@Base 4:5.69.0
 _ZTSN8KWayland6Server19TabletToolInterfaceE@Base 4:5.69.0
 _ZTSN8KWayland6Server19XdgForeignInterfaceE@Base 4:5.41.0
 _ZTSN8KWayland6Server20BlurManagerInterface7PrivateE@Base 4:5.5.0
 _ZTSN8KWayland6Server20BlurManagerInterfaceE@Base 4:5.5.0
 _ZTSN8KWayland6Server20DpmsManagerInterface7PrivateE@Base 4:5.5.0
 _ZTSN8KWayland6Server20DpmsManagerInterfaceE@Base 4:5.5.0
 _ZTSN8KWayland6Server20IdleTimeoutInterface7PrivateE@Base 4:5.4.0
 _ZTSN8KWayland6Server20IdleTimeoutInterfaceE@Base 4:5.4.0
 _ZTSN8KWayland6Server20PlasmaShellInterface7PrivateE@Base 4:5.4.0
 _ZTSN8KWayland6Server20PlasmaShellInterfaceE@Base 4:5.4.0
 _ZTSN8KWayland6Server21OutputDeviceInterface7PrivateE@Base 4:5.5.0
 _ZTSN8KWayland6Server21OutputDeviceInterfaceE@Base 4:5.5.0
 _ZTSN8KWayland6Server21PlasmaWindowInterfaceE@Base 4:5.4.0
 _ZTSN8KWayland6Server21ShellSurfaceInterface7PrivateE@Base 4:5.1.1+git20141128.0009
 _ZTSN8KWayland6Server21ShellSurfaceInterfaceE@Base 4:5.1.1+git20141128.0009
 _ZTSN8KWayland6Server21SlideManagerInterface7PrivateE@Base 4:5.5.0
 _ZTSN8KWayland6Server21SlideManagerInterfaceE@Base 4:5.5.0
 _ZTSN8KWayland6Server22LockedPointerInterface7PrivateE@Base 4:5.35.0
 _ZTSN8KWayland6Server22LockedPointerInterfaceE@Base 4:5.35.0
 _ZTSN8KWayland6Server22ShadowManagerInterface7PrivateE@Base 4:5.4.0
 _ZTSN8KWayland6Server22ShadowManagerInterfaceE@Base 4:5.4.0
 _ZTSN8KWayland6Server22SubCompositorInterface7PrivateE@Base 4:5.1.1+git20141128.0009
 _ZTSN8KWayland6Server22SubCompositorInterfaceE@Base 4:5.1.1+git20141128.0009
 _ZTSN8KWayland6Server22TabletManagerInterface7PrivateE@Base 4:5.69.0
 _ZTSN8KWayland6Server22TabletManagerInterfaceE@Base 4:5.69.0
 _ZTSN8KWayland6Server22XdgDecorationInterface7PrivateE@Base 4:5.54.0
 _ZTSN8KWayland6Server22XdgDecorationInterfaceE@Base 4:5.54.0
 _ZTSN8KWayland6Server22XdgShellPopupInterface7PrivateE@Base 4:5.25.0
 _ZTSN8KWayland6Server22XdgShellPopupInterfaceE@Base 4:5.25.0
 _ZTSN8KWayland6Server23AppMenuManagerInterface7PrivateE@Base 4:5.42.0
 _ZTSN8KWayland6Server23AppMenuManagerInterfaceE@Base 4:5.42.0
 _ZTSN8KWayland6Server24ConfinedPointerInterface7PrivateE@Base 4:5.35.0
 _ZTSN8KWayland6Server24ConfinedPointerInterfaceE@Base 4:5.35.0
 _ZTSN8KWayland6Server24ContrastManagerInterface7PrivateE@Base 4:5.5.0
 _ZTSN8KWayland6Server24ContrastManagerInterfaceE@Base 4:5.5.0
 _ZTSN8KWayland6Server24PointerGesturesInterface7PrivateE@Base 4:5.35.0
 _ZTSN8KWayland6Server24PointerGesturesInterfaceE@Base 4:5.35.0
 _ZTSN8KWayland6Server24XdgShellSurfaceInterface7PrivateE@Base 4:5.25.0
 _ZTSN8KWayland6Server24XdgShellSurfaceInterfaceE@Base 4:5.25.0
 _ZTSN8KWayland6Server25OutputManagementInterface7PrivateE@Base 4:5.5.0
 _ZTSN8KWayland6Server25OutputManagementInterfaceE@Base 4:5.5.0
 _ZTSN8KWayland6Server25TextInputManagerInterface7PrivateE@Base 4:5.23.0
 _ZTSN8KWayland6Server25TextInputManagerInterfaceE@Base 4:5.23.0
 _ZTSN8KWayland6Server25XdgOutputManagerInterface7PrivateE@Base 4:5.47.0
 _ZTSN8KWayland6Server25XdgOutputManagerInterfaceE@Base 4:5.47.0
 _ZTSN8KWayland6Server26DataDeviceManagerInterface7PrivateE@Base 4:5.1.1+git20141128.0009
 _ZTSN8KWayland6Server26DataDeviceManagerInterfaceE@Base 4:5.1.1+git20141128.0009
 _ZTSN8KWayland6Server26QtExtendedSurfaceInterface7PrivateE@Base 4:5.4.0
 _ZTSN8KWayland6Server26QtExtendedSurfaceInterfaceE@Base 4:5.4.0
 _ZTSN8KWayland6Server27IdleInhibitManagerInterfaceE@Base 4:5.41.0
 _ZTSN8KWayland6Server27LinuxDmabufUnstableV1Buffer7PrivateE@Base 4:5.62.0
 _ZTSN8KWayland6Server27LinuxDmabufUnstableV1BufferE@Base 4:5.62.0
 _ZTSN8KWayland6Server27PlasmaShellSurfaceInterface7PrivateE@Base 4:5.4.0
 _ZTSN8KWayland6Server27PlasmaShellSurfaceInterfaceE@Base 4:5.4.0
 _ZTSN8KWayland6Server27PointerConstraintsInterface7PrivateE@Base 4:5.35.0
 _ZTSN8KWayland6Server27PointerConstraintsInterfaceE@Base 4:5.35.0
 _ZTSN8KWayland6Server27QtSurfaceExtensionInterface7PrivateE@Base 4:5.4.0
 _ZTSN8KWayland6Server27QtSurfaceExtensionInterfaceE@Base 4:5.4.0
 _ZTSN8KWayland6Server28EglStreamControllerInterfaceE@Base 4:5.61.0
 _ZTSN8KWayland6Server28OutputConfigurationInterface7PrivateE@Base 4:5.5.0
 _ZTSN8KWayland6Server28OutputConfigurationInterfaceE@Base 4:5.5.0
 _ZTSN8KWayland6Server28RemoteAccessManagerInterface7PrivateE@Base 4:5.45.0
 _ZTSN8KWayland6Server28RemoteAccessManagerInterfaceE@Base 4:5.45.0
 _ZTSN8KWayland6Server29PlasmaVirtualDesktopInterfaceE@Base 4:5.52.0
 _ZTSN8KWayland6Server29ServerSideDecorationInterface7PrivateE@Base 4:5.6.2
 _ZTSN8KWayland6Server29ServerSideDecorationInterfaceE@Base 4:5.6.2
 _ZTSN8KWayland6Server29XdgDecorationManagerInterface7PrivateE@Base 4:5.54.0
 _ZTSN8KWayland6Server29XdgDecorationManagerInterfaceE@Base 4:5.54.0
 _ZTSN8KWayland6Server30LinuxDmabufUnstableV1Interface7PrivateE@Base 4:5.62.0
 _ZTSN8KWayland6Server30LinuxDmabufUnstableV1InterfaceE@Base 4:5.62.0
 _ZTSN8KWayland6Server31PlasmaWindowManagementInterface7PrivateE@Base 4:5.4.0
 _ZTSN8KWayland6Server31PlasmaWindowManagementInterfaceE@Base 4:5.4.0
 _ZTSN8KWayland6Server31RelativePointerManagerInterface7PrivateE@Base 4:5.28.0
 _ZTSN8KWayland6Server31RelativePointerManagerInterfaceE@Base 4:5.28.0
 _ZTSN8KWayland6Server36ServerSideDecorationManagerInterface7PrivateE@Base 4:5.6.2
 _ZTSN8KWayland6Server36ServerSideDecorationManagerInterfaceE@Base 4:5.6.2
 _ZTSN8KWayland6Server36ServerSideDecorationPaletteInterface7PrivateE@Base 4:5.42.0
 _ZTSN8KWayland6Server36ServerSideDecorationPaletteInterfaceE@Base 4:5.42.0
 _ZTSN8KWayland6Server39PlasmaVirtualDesktopManagementInterfaceE@Base 4:5.52.0
 _ZTSN8KWayland6Server43ServerSideDecorationPaletteManagerInterface7PrivateE@Base 4:5.42.0
 _ZTSN8KWayland6Server43ServerSideDecorationPaletteManagerInterfaceE@Base 4:5.42.0
 _ZTSN8KWayland6Server6CursorE@Base 4:5.2.1+git20150228.0043+15.04
 _ZTSN8KWayland6Server6Global7PrivateE@Base 4:5.1.1+git20141128.0009
 _ZTSN8KWayland6Server6GlobalE@Base 4:5.1.1+git20141128.0009
 _ZTSN8KWayland6Server7DisplayE@Base 4:5.1.1+git20141128.0009
 _ZTSN8KWayland6Server8Resource7PrivateE@Base 4:5.1.1+git20141128.0009
 _ZTSN8KWayland6Server8ResourceE@Base 4:5.1.1+git20141128.0009
 _ZTVN8KWayland6Server12BufferHandleE@Base 4:5.45.0
 _ZTVN8KWayland6Server12TabletCursorE@Base 4:5.69.0
 _ZTVN8KWayland6Server13BlurInterface7PrivateE@Base 4:5.5.0
 _ZTVN8KWayland6Server13BlurInterfaceE@Base 4:5.5.0
 _ZTVN8KWayland6Server13IdleInterface7PrivateE@Base 4:5.4.0
 _ZTVN8KWayland6Server13IdleInterfaceE@Base 4:5.4.0
 _ZTVN8KWayland6Server13SeatInterface7PrivateE@Base 4:5.1.1+git20141128.0009
 _ZTVN8KWayland6Server13SeatInterfaceE@Base 4:5.1.1+git20141128.0009
 _ZTVN8KWayland6Server14ShellInterface7PrivateE@Base 4:5.1.1+git20141128.0009
 _ZTVN8KWayland6Server14ShellInterfaceE@Base 4:5.1.1+git20141128.0009
 _ZTVN8KWayland6Server14SlideInterface7PrivateE@Base 4:5.5.0
 _ZTVN8KWayland6Server14SlideInterfaceE@Base 4:5.5.0
 _ZTVN8KWayland6Server14TouchInterface7PrivateE@Base 4:5.2.2+git20150326.0109+15.04
 _ZTVN8KWayland6Server14TouchInterfaceE@Base 4:5.2.2+git20150326.0109+15.04
 _ZTVN8KWayland6Server15BufferInterfaceE@Base 4:5.1.1+git20141128.0009
 _ZTVN8KWayland6Server15FakeInputDeviceE@Base 4:5.4.0
 _ZTVN8KWayland6Server15FilteredDisplayE@Base 4:5.41.0
 _ZTVN8KWayland6Server15OutputChangeSetE@Base 4:5.5.0
 _ZTVN8KWayland6Server15OutputInterface7PrivateE@Base 4:5.1.1+git20141128.0009
 _ZTVN8KWayland6Server15OutputInterfaceE@Base 4:5.1.1+git20141128.0009
 _ZTVN8KWayland6Server15RegionInterface7PrivateE@Base 4:5.1.1+git20141128.0009
 _ZTVN8KWayland6Server15RegionInterfaceE@Base 4:5.1.1+git20141128.0009
 _ZTVN8KWayland6Server15ShadowInterface7PrivateE@Base 4:5.4.0
 _ZTVN8KWayland6Server15ShadowInterfaceE@Base 4:5.4.0
 _ZTVN8KWayland6Server15TabletInterface7PrivateE@Base 4:5.69.0
 _ZTVN8KWayland6Server15TabletInterfaceE@Base 4:5.69.0
 _ZTVN8KWayland6Server16AppMenuInterface7PrivateE@Base 4:5.42.0
 _ZTVN8KWayland6Server16AppMenuInterfaceE@Base 4:5.42.0
 _ZTVN8KWayland6Server16ClientConnectionE@Base 4:5.1.1+git20141128.0009
 _ZTVN8KWayland6Server16PointerInterface7PrivateE@Base 4:5.1.1+git20141128.0009
 _ZTVN8KWayland6Server16PointerInterfaceE@Base 4:5.1.1+git20141128.0009
 _ZTVN8KWayland6Server16SurfaceInterface7PrivateE@Base 4:5.1.1+git20141128.0009
 _ZTVN8KWayland6Server16SurfaceInterfaceE@Base 4:5.1.1+git20141128.0009
 _ZTVN8KWayland6Server17ContrastInterface7PrivateE@Base 4:5.5.0
 _ZTVN8KWayland6Server17ContrastInterfaceE@Base 4:5.5.0
 _ZTVN8KWayland6Server17KeyStateInterface7PrivateE@Base 4:5.61.0
 _ZTVN8KWayland6Server17KeyStateInterfaceE@Base 4:5.61.0
 _ZTVN8KWayland6Server17KeyboardInterface7PrivateE@Base 4:5.1.1+git20141128.0009
 _ZTVN8KWayland6Server17KeyboardInterfaceE@Base 4:5.1.1+git20141128.0009
 _ZTVN8KWayland6Server17LinuxDmabufBufferE@Base 4:5.62.0
 _ZTVN8KWayland6Server17XdgShellInterface7PrivateE@Base 4:5.25.0
 _ZTVN8KWayland6Server17XdgShellInterfaceE@Base 4:5.25.0
 _ZTVN8KWayland6Server18DataOfferInterfaceE@Base 4:5.1.1+git20141128.0009
 _ZTVN8KWayland6Server18FakeInputInterface7PrivateE@Base 4:5.4.0
 _ZTVN8KWayland6Server18FakeInputInterfaceE@Base 4:5.4.0
 _ZTVN8KWayland6Server18TextInputInterface7PrivateE@Base 4:5.23.0
 _ZTVN8KWayland6Server18TextInputInterfaceE@Base 4:5.23.0
 _ZTVN8KWayland6Server18XdgOutputInterfaceE@Base 4:5.47.0
 _ZTVN8KWayland6Server19CompositorInterface7PrivateE@Base 4:5.1.1+git20141128.0009
 _ZTVN8KWayland6Server19CompositorInterfaceE@Base 4:5.1.1+git20141128.0009
 _ZTVN8KWayland6Server19DataDeviceInterface7PrivateE@Base 4:5.1.1+git20141128.0009
 _ZTVN8KWayland6Server19DataDeviceInterfaceE@Base 4:5.1.1+git20141128.0009
 _ZTVN8KWayland6Server19DataSourceInterface7PrivateE@Base 4:5.1.1+git20141128.0009
 _ZTVN8KWayland6Server19DataSourceInterfaceE@Base 4:5.1.1+git20141128.0009
 _ZTVN8KWayland6Server19SubSurfaceInterface7PrivateE@Base 4:5.1.1+git20141128.0009
 _ZTVN8KWayland6Server19SubSurfaceInterfaceE@Base 4:5.1.1+git20141128.0009
 _ZTVN8KWayland6Server19TabletSeatInterface7PrivateE@Base 4:5.69.0
 _ZTVN8KWayland6Server19TabletSeatInterfaceE@Base 4:5.69.0
 _ZTVN8KWayland6Server19TabletToolInterface7PrivateE@Base 4:5.69.0
 _ZTVN8KWayland6Server19TabletToolInterfaceE@Base 4:5.69.0
 _ZTVN8KWayland6Server19XdgForeignInterfaceE@Base 4:5.41.0
 _ZTVN8KWayland6Server20BlurManagerInterface7PrivateE@Base 4:5.5.0
 _ZTVN8KWayland6Server20BlurManagerInterfaceE@Base 4:5.5.0
 _ZTVN8KWayland6Server20DpmsManagerInterface7PrivateE@Base 4:5.5.0
 _ZTVN8KWayland6Server20DpmsManagerInterfaceE@Base 4:5.5.0
 _ZTVN8KWayland6Server20IdleTimeoutInterface7PrivateE@Base 4:5.4.0
 _ZTVN8KWayland6Server20IdleTimeoutInterfaceE@Base 4:5.4.0
 _ZTVN8KWayland6Server20PlasmaShellInterface7PrivateE@Base 4:5.4.0
 _ZTVN8KWayland6Server20PlasmaShellInterfaceE@Base 4:5.4.0
 _ZTVN8KWayland6Server21OutputDeviceInterface7PrivateE@Base 4:5.5.0
 _ZTVN8KWayland6Server21OutputDeviceInterfaceE@Base 4:5.5.0
 _ZTVN8KWayland6Server21PlasmaWindowInterfaceE@Base 4:5.4.0
 _ZTVN8KWayland6Server21ShellSurfaceInterface7PrivateE@Base 4:5.1.1+git20141128.0009
 _ZTVN8KWayland6Server21ShellSurfaceInterfaceE@Base 4:5.1.1+git20141128.0009
 _ZTVN8KWayland6Server21SlideManagerInterface7PrivateE@Base 4:5.5.0
 _ZTVN8KWayland6Server21SlideManagerInterfaceE@Base 4:5.5.0
 _ZTVN8KWayland6Server22LockedPointerInterface7PrivateE@Base 4:5.35.0
 _ZTVN8KWayland6Server22LockedPointerInterfaceE@Base 4:5.35.0
 _ZTVN8KWayland6Server22ShadowManagerInterface7PrivateE@Base 4:5.4.0
 _ZTVN8KWayland6Server22ShadowManagerInterfaceE@Base 4:5.4.0
 _ZTVN8KWayland6Server22SubCompositorInterface7PrivateE@Base 4:5.1.1+git20141128.0009
 _ZTVN8KWayland6Server22SubCompositorInterfaceE@Base 4:5.1.1+git20141128.0009
 _ZTVN8KWayland6Server22TabletManagerInterface7PrivateE@Base 4:5.69.0
 _ZTVN8KWayland6Server22TabletManagerInterfaceE@Base 4:5.69.0
 _ZTVN8KWayland6Server22XdgDecorationInterface7PrivateE@Base 4:5.54.0
 _ZTVN8KWayland6Server22XdgDecorationInterfaceE@Base 4:5.54.0
 _ZTVN8KWayland6Server22XdgShellPopupInterface7PrivateE@Base 4:5.25.0
 _ZTVN8KWayland6Server22XdgShellPopupInterfaceE@Base 4:5.25.0
 _ZTVN8KWayland6Server23AppMenuManagerInterface7PrivateE@Base 4:5.42.0
 _ZTVN8KWayland6Server23AppMenuManagerInterfaceE@Base 4:5.42.0
 _ZTVN8KWayland6Server24ConfinedPointerInterface7PrivateE@Base 4:5.35.0
 _ZTVN8KWayland6Server24ConfinedPointerInterfaceE@Base 4:5.35.0
 _ZTVN8KWayland6Server24ContrastManagerInterface7PrivateE@Base 4:5.5.0
 _ZTVN8KWayland6Server24ContrastManagerInterfaceE@Base 4:5.5.0
 _ZTVN8KWayland6Server24PointerGesturesInterface7PrivateE@Base 4:5.35.0
 _ZTVN8KWayland6Server24PointerGesturesInterfaceE@Base 4:5.35.0
 _ZTVN8KWayland6Server24XdgShellSurfaceInterface7PrivateE@Base 4:5.25.0
 _ZTVN8KWayland6Server24XdgShellSurfaceInterfaceE@Base 4:5.25.0
 _ZTVN8KWayland6Server25OutputManagementInterface7PrivateE@Base 4:5.5.0
 _ZTVN8KWayland6Server25OutputManagementInterfaceE@Base 4:5.5.0
 _ZTVN8KWayland6Server25TextInputManagerInterface7PrivateE@Base 4:5.23.0
 _ZTVN8KWayland6Server25TextInputManagerInterfaceE@Base 4:5.23.0
 _ZTVN8KWayland6Server25XdgOutputManagerInterface7PrivateE@Base 4:5.47.0
 _ZTVN8KWayland6Server25XdgOutputManagerInterfaceE@Base 4:5.47.0
 _ZTVN8KWayland6Server26DataDeviceManagerInterface7PrivateE@Base 4:5.1.1+git20141128.0009
 _ZTVN8KWayland6Server26DataDeviceManagerInterfaceE@Base 4:5.1.1+git20141128.0009
 _ZTVN8KWayland6Server26QtExtendedSurfaceInterface7PrivateE@Base 4:5.4.0
 _ZTVN8KWayland6Server26QtExtendedSurfaceInterfaceE@Base 4:5.4.0
 _ZTVN8KWayland6Server27IdleInhibitManagerInterfaceE@Base 4:5.41.0
 _ZTVN8KWayland6Server27LinuxDmabufUnstableV1Buffer7PrivateE@Base 4:5.62.0
 _ZTVN8KWayland6Server27LinuxDmabufUnstableV1BufferE@Base 4:5.62.0
 _ZTVN8KWayland6Server27PlasmaShellSurfaceInterface7PrivateE@Base 4:5.4.0
 _ZTVN8KWayland6Server27PlasmaShellSurfaceInterfaceE@Base 4:5.4.0
 _ZTVN8KWayland6Server27PointerConstraintsInterface7PrivateE@Base 4:5.35.0
 _ZTVN8KWayland6Server27PointerConstraintsInterfaceE@Base 4:5.35.0
 _ZTVN8KWayland6Server27QtSurfaceExtensionInterface7PrivateE@Base 4:5.4.0
 _ZTVN8KWayland6Server27QtSurfaceExtensionInterfaceE@Base 4:5.4.0
 _ZTVN8KWayland6Server28EglStreamControllerInterfaceE@Base 4:5.61.0
 _ZTVN8KWayland6Server28OutputConfigurationInterface7PrivateE@Base 4:5.5.0
 _ZTVN8KWayland6Server28OutputConfigurationInterfaceE@Base 4:5.5.0
 _ZTVN8KWayland6Server28RemoteAccessManagerInterface7PrivateE@Base 4:5.45.0
 _ZTVN8KWayland6Server28RemoteAccessManagerInterfaceE@Base 4:5.45.0
 _ZTVN8KWayland6Server29PlasmaVirtualDesktopInterfaceE@Base 4:5.52.0
 _ZTVN8KWayland6Server29ServerSideDecorationInterface7PrivateE@Base 4:5.6.2
 _ZTVN8KWayland6Server29ServerSideDecorationInterfaceE@Base 4:5.6.2
 _ZTVN8KWayland6Server29XdgDecorationManagerInterface7PrivateE@Base 4:5.54.0
 _ZTVN8KWayland6Server29XdgDecorationManagerInterfaceE@Base 4:5.54.0
 _ZTVN8KWayland6Server30LinuxDmabufUnstableV1Interface7PrivateE@Base 4:5.62.0
 _ZTVN8KWayland6Server30LinuxDmabufUnstableV1InterfaceE@Base 4:5.62.0
 _ZTVN8KWayland6Server31PlasmaWindowManagementInterface7PrivateE@Base 4:5.4.0
 _ZTVN8KWayland6Server31PlasmaWindowManagementInterfaceE@Base 4:5.4.0
 _ZTVN8KWayland6Server31RelativePointerManagerInterface7PrivateE@Base 4:5.28.0
 _ZTVN8KWayland6Server31RelativePointerManagerInterfaceE@Base 4:5.28.0
 _ZTVN8KWayland6Server36ServerSideDecorationManagerInterface7PrivateE@Base 4:5.6.2
 _ZTVN8KWayland6Server36ServerSideDecorationManagerInterfaceE@Base 4:5.6.2
 _ZTVN8KWayland6Server36ServerSideDecorationPaletteInterface7PrivateE@Base 4:5.42.0
 _ZTVN8KWayland6Server36ServerSideDecorationPaletteInterfaceE@Base 4:5.42.0
 _ZTVN8KWayland6Server39PlasmaVirtualDesktopManagementInterfaceE@Base 4:5.52.0
 _ZTVN8KWayland6Server43ServerSideDecorationPaletteManagerInterface7PrivateE@Base 4:5.42.0
 _ZTVN8KWayland6Server43ServerSideDecorationPaletteManagerInterfaceE@Base 4:5.42.0
 _ZTVN8KWayland6Server6CursorE@Base 4:5.2.1+git20150228.0043+15.04
 _ZTVN8KWayland6Server6Global7PrivateE@Base 4:5.1.1+git20141128.0009
 _ZTVN8KWayland6Server6GlobalE@Base 4:5.1.1+git20141128.0009
 _ZTVN8KWayland6Server7DisplayE@Base 4:5.1.1+git20141128.0009
 _ZTVN8KWayland6Server8Resource7PrivateE@Base 4:5.1.1+git20141128.0009
 _ZTVN8KWayland6Server8ResourceE@Base 4:5.1.1+git20141128.0009
 _ZZNK8KWayland6Server15OutputInterface7Private12manufacturerMUlvE_clEvE15qstring_literal@Base 4:5.1.1+git20141128.0009
 _ZZNK8KWayland6Server15OutputInterface7Private5modelMUlvE_clEvE15qstring_literal@Base 4:5.1.1+git20141128.0009
 _ZZNK8KWayland6Server21OutputDeviceInterface7Private12manufacturerMUlvE_clEvE15qstring_literal@Base 4:5.5.0
 _ZZNK8KWayland6Server21OutputDeviceInterface7Private5modelMUlvE_clEvE15qstring_literal@Base 4:5.5.0
 _ZZNK8KWayland6Server7Display7Private10socketNameMUlvE_clEvE15qstring_literal@Base 4:5.1.1+git20141128.0009
 (c++)"non-virtual thunk to KWayland::Server::ShellSurfaceInterface::Private::commit()@Base" 4:5.69.0
 (c++)"non-virtual thunk to KWayland::Server::XdgShellPopupInterface::Private::~Private()@Base" 4:5.69.0
 (c++)"non-virtual thunk to KWayland::Server::XdgShellSurfaceInterface::Private::~Private()@Base" 4:5.69.0
 org_kde_kwin_appmenu_interface@Base 4:5.42.0
 org_kde_kwin_appmenu_manager_interface@Base 4:5.42.0
 org_kde_kwin_blur_interface@Base 4:5.5.0
 org_kde_kwin_blur_manager_interface@Base 4:5.5.0
 org_kde_kwin_contrast_interface@Base 4:5.5.0
 org_kde_kwin_contrast_manager_interface@Base 4:5.5.0
 org_kde_kwin_dpms_interface@Base 4:5.5.0
 org_kde_kwin_dpms_manager_interface@Base 4:5.5.0
 org_kde_kwin_fake_input_interface@Base 4:5.4.0
 org_kde_kwin_idle_interface@Base 4:5.4.0
 org_kde_kwin_idle_timeout_interface@Base 4:5.4.0
 org_kde_kwin_keystate_interface@Base 4:5.61.0
 org_kde_kwin_outputconfiguration_interface@Base 4:5.5.0
 org_kde_kwin_outputdevice_interface@Base 4:5.5.0
 org_kde_kwin_outputmanagement_interface@Base 4:5.5.0
 org_kde_kwin_remote_access_manager_interface@Base 4:5.45.0
 org_kde_kwin_remote_buffer_interface@Base 4:5.45.0
 org_kde_kwin_server_decoration_interface@Base 4:5.6.2
 org_kde_kwin_server_decoration_manager_interface@Base 4:5.6.2
 org_kde_kwin_server_decoration_palette_interface@Base 4:5.42.0
 org_kde_kwin_server_decoration_palette_manager_interface@Base 4:5.42.0
 org_kde_kwin_shadow_interface@Base 4:5.4.0
 org_kde_kwin_shadow_manager_interface@Base 4:5.4.0
 org_kde_kwin_slide_interface@Base 4:5.5.0
 org_kde_kwin_slide_manager_interface@Base 4:5.5.0
 org_kde_plasma_activation_feedback_interface@Base 4:5.90.0
 org_kde_plasma_activation_interface@Base 4:5.90.0
 org_kde_plasma_shell_interface@Base 4:5.4.0
 org_kde_plasma_surface_interface@Base 4:5.4.0
 org_kde_plasma_virtual_desktop_interface@Base 4:5.52.0
 org_kde_plasma_virtual_desktop_management_interface@Base 4:5.52.0
 org_kde_plasma_window_interface@Base 4:5.4.0
 org_kde_plasma_window_management_interface@Base 4:5.4.0
 qt_extended_surface_interface@Base 4:5.4.0
 qt_surface_extension_interface@Base 4:5.4.0
 wl_eglstream_controller_interface@Base 4:5.61.0
 wl_text_input_interface@Base 4:5.23.0
 wl_text_input_manager_interface@Base 4:5.23.0
 xdg_popup_interface@Base 4:5.25.0
 xdg_positioner_interface@Base 4:5.49.0
 xdg_surface_interface@Base 4:5.25.0
 xdg_toplevel_interface@Base 4:5.49.0
 xdg_wm_base_interface@Base 4:5.49.0
 zwp_confined_pointer_v1_interface@Base 4:5.35.0
 zwp_idle_inhibit_manager_v1_interface@Base 4:5.41.0
 zwp_idle_inhibitor_v1_interface@Base 4:5.41.0
 zwp_linux_buffer_params_v1_interface@Base 4:5.62.0
 zwp_linux_dmabuf_feedback_v1_interface@Base 4:5.90.0
 zwp_linux_dmabuf_v1_interface@Base 4:5.62.0
 zwp_locked_pointer_v1_interface@Base 4:5.35.0
 zwp_pointer_constraints_v1_interface@Base 4:5.35.0
 zwp_pointer_gesture_hold_v1_interface@Base 4:5.90.0
 zwp_pointer_gesture_pinch_v1_interface@Base 4:5.35.0
 zwp_pointer_gesture_swipe_v1_interface@Base 4:5.35.0
 zwp_pointer_gestures_v1_interface@Base 4:5.35.0
 zwp_relative_pointer_manager_v1_interface@Base 4:5.28.0
 zwp_relative_pointer_v1_interface@Base 4:5.28.0
 zwp_tablet_manager_v2_interface@Base 4:5.69.0
 zwp_tablet_pad_group_v2_interface@Base 4:5.69.0
 zwp_tablet_pad_ring_v2_interface@Base 4:5.69.0
 zwp_tablet_pad_strip_v2_interface@Base 4:5.69.0
 zwp_tablet_pad_v2_interface@Base 4:5.69.0
 zwp_tablet_seat_v2_interface@Base 4:5.69.0
 zwp_tablet_tool_v2_interface@Base 4:5.69.0
 zwp_tablet_v2_interface@Base 4:5.69.0
 zwp_text_input_manager_v2_interface@Base 4:5.23.0
 zwp_text_input_v2_interface@Base 4:5.23.0
 zxdg_decoration_manager_v1_interface@Base 4:5.54.0
 zxdg_exported_v2_interface@Base 4:5.41.0
 zxdg_exporter_v2_interface@Base 4:5.41.0
 zxdg_imported_v2_interface@Base 4:5.41.0
 zxdg_importer_v2_interface@Base 4:5.41.0
 zxdg_output_manager_v1_interface@Base 4:5.47.0
 zxdg_output_v1_interface@Base 4:5.47.0
 zxdg_popup_v5_interface@Base 4:5.49.0
 zxdg_popup_v6_interface@Base 4:5.41.0
 zxdg_positioner_v6_interface@Base 4:5.41.0
 zxdg_shell_v5_interface@Base 4:5.49.0
 zxdg_shell_v6_interface@Base 4:5.41.0
 zxdg_surface_v5_interface@Base 4:5.49.0
 zxdg_surface_v6_interface@Base 4:5.41.0
 zxdg_toplevel_decoration_v1_interface@Base 4:5.54.0
 zxdg_toplevel_v6_interface@Base 4:5.41.0
